haha
KERNEL.BIN:     file format elf32-i386


Disassembly of section .text:

00030400 <_start>:
   30400:	bc a0 97 03 00       	mov    $0x397a0,%esp
   30405:	0f 01 05 7c 70 06 00 	sgdtl  0x6707c
   3040c:	e8 a7 06 00 00       	call   30ab8 <cstart>
   30411:	0f 01 15 7c 70 06 00 	lgdtl  0x6707c
   30418:	0f 01 1d 60 9f 03 00 	lidtl  0x39f60
   3041f:	ea 26 04 03 00 08 00 	ljmp   $0x8,$0x30426

00030426 <csinit>:
   30426:	31 c0                	xor    %eax,%eax
   30428:	66 b8 20 00          	mov    $0x20,%ax
   3042c:	0f 00 d8             	ltr    %ax
   3042f:	e9 ec 17 00 00       	jmp    31c20 <kernel_main>

00030434 <haha_stop>:
   30434:	e9 fb ff ff ff       	jmp    30434 <haha_stop>
   30439:	e9 f6 ff ff ff       	jmp    30434 <haha_stop>
   3043e:	e9 f1 ff ff ff       	jmp    30434 <haha_stop>

00030443 <testword>:
   30443:	74 65                	je     304aa <inval_opcode+0x8>
   30445:	73 74                	jae    304bb <copr_not_available+0xa>
	...

00030448 <divide_error>:
   30448:	68 ff ff ff ff       	push   $0xffffffff
   3044d:	68 00 00 00 00       	push   $0x0
   30452:	e9 c0 03 00 00       	jmp    30817 <exception>

00030457 <single_step_exception>:
   30457:	68 ff ff ff ff       	push   $0xffffffff
   3045c:	68 01 00 00 00       	push   $0x1
   30461:	e9 b1 03 00 00       	jmp    30817 <exception>

00030466 <nmi>:
   30466:	68 ff ff ff ff       	push   $0xffffffff
   3046b:	68 02 00 00 00       	push   $0x2
   30470:	e9 a2 03 00 00       	jmp    30817 <exception>

00030475 <breakpoint_exception>:
   30475:	68 ff ff ff ff       	push   $0xffffffff
   3047a:	68 03 00 00 00       	push   $0x3
   3047f:	e9 93 03 00 00       	jmp    30817 <exception>

00030484 <overflow>:
   30484:	68 ff ff ff ff       	push   $0xffffffff
   30489:	68 04 00 00 00       	push   $0x4
   3048e:	e9 84 03 00 00       	jmp    30817 <exception>

00030493 <bounds_check>:
   30493:	68 ff ff ff ff       	push   $0xffffffff
   30498:	68 05 00 00 00       	push   $0x5
   3049d:	e9 75 03 00 00       	jmp    30817 <exception>

000304a2 <inval_opcode>:
   304a2:	68 ff ff ff ff       	push   $0xffffffff
   304a7:	68 06 00 00 00       	push   $0x6
   304ac:	e9 66 03 00 00       	jmp    30817 <exception>

000304b1 <copr_not_available>:
   304b1:	68 ff ff ff ff       	push   $0xffffffff
   304b6:	68 07 00 00 00       	push   $0x7
   304bb:	e9 57 03 00 00       	jmp    30817 <exception>

000304c0 <double_fault>:
   304c0:	68 08 00 00 00       	push   $0x8
   304c5:	e9 4d 03 00 00       	jmp    30817 <exception>

000304ca <copr_seg_overrun>:
   304ca:	68 ff ff ff ff       	push   $0xffffffff
   304cf:	68 09 00 00 00       	push   $0x9
   304d4:	e9 3e 03 00 00       	jmp    30817 <exception>

000304d9 <inval_tss>:
   304d9:	68 0a 00 00 00       	push   $0xa
   304de:	e9 34 03 00 00       	jmp    30817 <exception>

000304e3 <segment_not_present>:
   304e3:	68 0b 00 00 00       	push   $0xb
   304e8:	e9 2a 03 00 00       	jmp    30817 <exception>

000304ed <stack_exception>:
   304ed:	68 0c 00 00 00       	push   $0xc
   304f2:	e9 20 03 00 00       	jmp    30817 <exception>

000304f7 <general_protection>:
   304f7:	68 0d 00 00 00       	push   $0xd
   304fc:	e9 16 03 00 00       	jmp    30817 <exception>

00030501 <page_fault>:
   30501:	68 0e 00 00 00       	push   $0xe
   30506:	e9 0c 03 00 00       	jmp    30817 <exception>

0003050b <copr_error>:
   3050b:	68 ff ff ff ff       	push   $0xffffffff
   30510:	68 10 00 00 00       	push   $0x10
   30515:	e9 fd 02 00 00       	jmp    30817 <exception>
   3051a:	90                   	nop
   3051b:	90                   	nop
   3051c:	90                   	nop
   3051d:	90                   	nop
   3051e:	90                   	nop
   3051f:	90                   	nop

00030520 <hwint00>:
   30520:	e8 41 03 00 00       	call   30866 <save>
   30525:	e4 21                	in     $0x21,%al
   30527:	0c 01                	or     $0x1,%al
   30529:	e6 21                	out    %al,$0x21
   3052b:	b0 20                	mov    $0x20,%al
   3052d:	e6 20                	out    %al,$0x20
   3052f:	fb                   	sti    
   30530:	68 00 00 00 00       	push   $0x0
   30535:	ff 15 00 79 06 00    	call   *0x67900
   3053b:	59                   	pop    %ecx
   3053c:	fa                   	cli    
   3053d:	e4 21                	in     $0x21,%al
   3053f:	24 fe                	and    $0xfe,%al
   30541:	e6 21                	out    %al,$0x21
   30543:	c3                   	ret    
   30544:	90                   	nop
   30545:	90                   	nop
   30546:	90                   	nop
   30547:	90                   	nop
   30548:	90                   	nop
   30549:	90                   	nop
   3054a:	90                   	nop
   3054b:	90                   	nop
   3054c:	90                   	nop
   3054d:	90                   	nop
   3054e:	90                   	nop
   3054f:	90                   	nop

00030550 <hwint01>:
   30550:	e8 11 03 00 00       	call   30866 <save>
   30555:	e4 21                	in     $0x21,%al
   30557:	0c 02                	or     $0x2,%al
   30559:	e6 21                	out    %al,$0x21
   3055b:	b0 20                	mov    $0x20,%al
   3055d:	e6 20                	out    %al,$0x20
   3055f:	fb                   	sti    
   30560:	68 01 00 00 00       	push   $0x1
   30565:	ff 15 04 79 06 00    	call   *0x67904
   3056b:	59                   	pop    %ecx
   3056c:	fa                   	cli    
   3056d:	e4 21                	in     $0x21,%al
   3056f:	24 fd                	and    $0xfd,%al
   30571:	e6 21                	out    %al,$0x21
   30573:	c3                   	ret    
   30574:	90                   	nop
   30575:	90                   	nop
   30576:	90                   	nop
   30577:	90                   	nop
   30578:	90                   	nop
   30579:	90                   	nop
   3057a:	90                   	nop
   3057b:	90                   	nop
   3057c:	90                   	nop
   3057d:	90                   	nop
   3057e:	90                   	nop
   3057f:	90                   	nop

00030580 <hwint02>:
   30580:	e8 e1 02 00 00       	call   30866 <save>
   30585:	e4 21                	in     $0x21,%al
   30587:	0c 04                	or     $0x4,%al
   30589:	e6 21                	out    %al,$0x21
   3058b:	b0 20                	mov    $0x20,%al
   3058d:	e6 20                	out    %al,$0x20
   3058f:	fb                   	sti    
   30590:	68 02 00 00 00       	push   $0x2
   30595:	ff 15 08 79 06 00    	call   *0x67908
   3059b:	59                   	pop    %ecx
   3059c:	fa                   	cli    
   3059d:	e4 21                	in     $0x21,%al
   3059f:	24 fb                	and    $0xfb,%al
   305a1:	e6 21                	out    %al,$0x21
   305a3:	c3                   	ret    
   305a4:	90                   	nop
   305a5:	90                   	nop
   305a6:	90                   	nop
   305a7:	90                   	nop
   305a8:	90                   	nop
   305a9:	90                   	nop
   305aa:	90                   	nop
   305ab:	90                   	nop
   305ac:	90                   	nop
   305ad:	90                   	nop
   305ae:	90                   	nop
   305af:	90                   	nop

000305b0 <hwint03>:
   305b0:	e8 b1 02 00 00       	call   30866 <save>
   305b5:	e4 21                	in     $0x21,%al
   305b7:	0c 08                	or     $0x8,%al
   305b9:	e6 21                	out    %al,$0x21
   305bb:	b0 20                	mov    $0x20,%al
   305bd:	e6 20                	out    %al,$0x20
   305bf:	fb                   	sti    
   305c0:	68 03 00 00 00       	push   $0x3
   305c5:	ff 15 0c 79 06 00    	call   *0x6790c
   305cb:	59                   	pop    %ecx
   305cc:	fa                   	cli    
   305cd:	e4 21                	in     $0x21,%al
   305cf:	24 f7                	and    $0xf7,%al
   305d1:	e6 21                	out    %al,$0x21
   305d3:	c3                   	ret    
   305d4:	90                   	nop
   305d5:	90                   	nop
   305d6:	90                   	nop
   305d7:	90                   	nop
   305d8:	90                   	nop
   305d9:	90                   	nop
   305da:	90                   	nop
   305db:	90                   	nop
   305dc:	90                   	nop
   305dd:	90                   	nop
   305de:	90                   	nop
   305df:	90                   	nop

000305e0 <hwint04>:
   305e0:	e8 81 02 00 00       	call   30866 <save>
   305e5:	e4 21                	in     $0x21,%al
   305e7:	0c 10                	or     $0x10,%al
   305e9:	e6 21                	out    %al,$0x21
   305eb:	b0 20                	mov    $0x20,%al
   305ed:	e6 20                	out    %al,$0x20
   305ef:	fb                   	sti    
   305f0:	68 04 00 00 00       	push   $0x4
   305f5:	ff 15 10 79 06 00    	call   *0x67910
   305fb:	59                   	pop    %ecx
   305fc:	fa                   	cli    
   305fd:	e4 21                	in     $0x21,%al
   305ff:	24 ef                	and    $0xef,%al
   30601:	e6 21                	out    %al,$0x21
   30603:	c3                   	ret    
   30604:	90                   	nop
   30605:	90                   	nop
   30606:	90                   	nop
   30607:	90                   	nop
   30608:	90                   	nop
   30609:	90                   	nop
   3060a:	90                   	nop
   3060b:	90                   	nop
   3060c:	90                   	nop
   3060d:	90                   	nop
   3060e:	90                   	nop
   3060f:	90                   	nop

00030610 <hwint05>:
   30610:	e8 51 02 00 00       	call   30866 <save>
   30615:	e4 21                	in     $0x21,%al
   30617:	0c 20                	or     $0x20,%al
   30619:	e6 21                	out    %al,$0x21
   3061b:	b0 20                	mov    $0x20,%al
   3061d:	e6 20                	out    %al,$0x20
   3061f:	fb                   	sti    
   30620:	68 05 00 00 00       	push   $0x5
   30625:	ff 15 14 79 06 00    	call   *0x67914
   3062b:	59                   	pop    %ecx
   3062c:	fa                   	cli    
   3062d:	e4 21                	in     $0x21,%al
   3062f:	24 df                	and    $0xdf,%al
   30631:	e6 21                	out    %al,$0x21
   30633:	c3                   	ret    
   30634:	90                   	nop
   30635:	90                   	nop
   30636:	90                   	nop
   30637:	90                   	nop
   30638:	90                   	nop
   30639:	90                   	nop
   3063a:	90                   	nop
   3063b:	90                   	nop
   3063c:	90                   	nop
   3063d:	90                   	nop
   3063e:	90                   	nop
   3063f:	90                   	nop

00030640 <hwint06>:
   30640:	e8 21 02 00 00       	call   30866 <save>
   30645:	e4 21                	in     $0x21,%al
   30647:	0c 40                	or     $0x40,%al
   30649:	e6 21                	out    %al,$0x21
   3064b:	b0 20                	mov    $0x20,%al
   3064d:	e6 20                	out    %al,$0x20
   3064f:	fb                   	sti    
   30650:	68 06 00 00 00       	push   $0x6
   30655:	ff 15 18 79 06 00    	call   *0x67918
   3065b:	59                   	pop    %ecx
   3065c:	fa                   	cli    
   3065d:	e4 21                	in     $0x21,%al
   3065f:	24 bf                	and    $0xbf,%al
   30661:	e6 21                	out    %al,$0x21
   30663:	c3                   	ret    
   30664:	90                   	nop
   30665:	90                   	nop
   30666:	90                   	nop
   30667:	90                   	nop
   30668:	90                   	nop
   30669:	90                   	nop
   3066a:	90                   	nop
   3066b:	90                   	nop
   3066c:	90                   	nop
   3066d:	90                   	nop
   3066e:	90                   	nop
   3066f:	90                   	nop

00030670 <hwint07>:
   30670:	e8 f1 01 00 00       	call   30866 <save>
   30675:	e4 21                	in     $0x21,%al
   30677:	0c 80                	or     $0x80,%al
   30679:	e6 21                	out    %al,$0x21
   3067b:	b0 20                	mov    $0x20,%al
   3067d:	e6 20                	out    %al,$0x20
   3067f:	fb                   	sti    
   30680:	68 07 00 00 00       	push   $0x7
   30685:	ff 15 1c 79 06 00    	call   *0x6791c
   3068b:	59                   	pop    %ecx
   3068c:	fa                   	cli    
   3068d:	e4 21                	in     $0x21,%al
   3068f:	24 7f                	and    $0x7f,%al
   30691:	e6 21                	out    %al,$0x21
   30693:	c3                   	ret    
   30694:	90                   	nop
   30695:	90                   	nop
   30696:	90                   	nop
   30697:	90                   	nop
   30698:	90                   	nop
   30699:	90                   	nop
   3069a:	90                   	nop
   3069b:	90                   	nop
   3069c:	90                   	nop
   3069d:	90                   	nop
   3069e:	90                   	nop
   3069f:	90                   	nop

000306a0 <hwint08>:
   306a0:	e8 c1 01 00 00       	call   30866 <save>
   306a5:	e4 a1                	in     $0xa1,%al
   306a7:	0c 01                	or     $0x1,%al
   306a9:	e6 a1                	out    %al,$0xa1
   306ab:	b0 20                	mov    $0x20,%al
   306ad:	e6 20                	out    %al,$0x20
   306af:	90                   	nop
   306b0:	e6 a0                	out    %al,$0xa0
   306b2:	fb                   	sti    
   306b3:	68 08 00 00 00       	push   $0x8
   306b8:	ff 15 20 79 06 00    	call   *0x67920
   306be:	59                   	pop    %ecx
   306bf:	fa                   	cli    
   306c0:	e4 a1                	in     $0xa1,%al
   306c2:	24 fe                	and    $0xfe,%al
   306c4:	e6 a1                	out    %al,$0xa1
   306c6:	c3                   	ret    
   306c7:	90                   	nop
   306c8:	90                   	nop
   306c9:	90                   	nop
   306ca:	90                   	nop
   306cb:	90                   	nop
   306cc:	90                   	nop
   306cd:	90                   	nop
   306ce:	90                   	nop
   306cf:	90                   	nop

000306d0 <hwint09>:
   306d0:	e8 91 01 00 00       	call   30866 <save>
   306d5:	e4 a1                	in     $0xa1,%al
   306d7:	0c 02                	or     $0x2,%al
   306d9:	e6 a1                	out    %al,$0xa1
   306db:	b0 20                	mov    $0x20,%al
   306dd:	e6 20                	out    %al,$0x20
   306df:	90                   	nop
   306e0:	e6 a0                	out    %al,$0xa0
   306e2:	fb                   	sti    
   306e3:	68 09 00 00 00       	push   $0x9
   306e8:	ff 15 24 79 06 00    	call   *0x67924
   306ee:	59                   	pop    %ecx
   306ef:	fa                   	cli    
   306f0:	e4 a1                	in     $0xa1,%al
   306f2:	24 fd                	and    $0xfd,%al
   306f4:	e6 a1                	out    %al,$0xa1
   306f6:	c3                   	ret    
   306f7:	90                   	nop
   306f8:	90                   	nop
   306f9:	90                   	nop
   306fa:	90                   	nop
   306fb:	90                   	nop
   306fc:	90                   	nop
   306fd:	90                   	nop
   306fe:	90                   	nop
   306ff:	90                   	nop

00030700 <hwint10>:
   30700:	e8 61 01 00 00       	call   30866 <save>
   30705:	e4 a1                	in     $0xa1,%al
   30707:	0c 04                	or     $0x4,%al
   30709:	e6 a1                	out    %al,$0xa1
   3070b:	b0 20                	mov    $0x20,%al
   3070d:	e6 20                	out    %al,$0x20
   3070f:	90                   	nop
   30710:	e6 a0                	out    %al,$0xa0
   30712:	fb                   	sti    
   30713:	68 0a 00 00 00       	push   $0xa
   30718:	ff 15 28 79 06 00    	call   *0x67928
   3071e:	59                   	pop    %ecx
   3071f:	fa                   	cli    
   30720:	e4 a1                	in     $0xa1,%al
   30722:	24 fb                	and    $0xfb,%al
   30724:	e6 a1                	out    %al,$0xa1
   30726:	c3                   	ret    
   30727:	90                   	nop
   30728:	90                   	nop
   30729:	90                   	nop
   3072a:	90                   	nop
   3072b:	90                   	nop
   3072c:	90                   	nop
   3072d:	90                   	nop
   3072e:	90                   	nop
   3072f:	90                   	nop

00030730 <hwint11>:
   30730:	e8 31 01 00 00       	call   30866 <save>
   30735:	e4 a1                	in     $0xa1,%al
   30737:	0c 08                	or     $0x8,%al
   30739:	e6 a1                	out    %al,$0xa1
   3073b:	b0 20                	mov    $0x20,%al
   3073d:	e6 20                	out    %al,$0x20
   3073f:	90                   	nop
   30740:	e6 a0                	out    %al,$0xa0
   30742:	fb                   	sti    
   30743:	68 0b 00 00 00       	push   $0xb
   30748:	ff 15 2c 79 06 00    	call   *0x6792c
   3074e:	59                   	pop    %ecx
   3074f:	fa                   	cli    
   30750:	e4 a1                	in     $0xa1,%al
   30752:	24 f7                	and    $0xf7,%al
   30754:	e6 a1                	out    %al,$0xa1
   30756:	c3                   	ret    
   30757:	90                   	nop
   30758:	90                   	nop
   30759:	90                   	nop
   3075a:	90                   	nop
   3075b:	90                   	nop
   3075c:	90                   	nop
   3075d:	90                   	nop
   3075e:	90                   	nop
   3075f:	90                   	nop

00030760 <hwint12>:
   30760:	e8 01 01 00 00       	call   30866 <save>
   30765:	e4 a1                	in     $0xa1,%al
   30767:	0c 10                	or     $0x10,%al
   30769:	e6 a1                	out    %al,$0xa1
   3076b:	b0 20                	mov    $0x20,%al
   3076d:	e6 20                	out    %al,$0x20
   3076f:	90                   	nop
   30770:	e6 a0                	out    %al,$0xa0
   30772:	fb                   	sti    
   30773:	68 0c 00 00 00       	push   $0xc
   30778:	ff 15 30 79 06 00    	call   *0x67930
   3077e:	59                   	pop    %ecx
   3077f:	fa                   	cli    
   30780:	e4 a1                	in     $0xa1,%al
   30782:	24 ef                	and    $0xef,%al
   30784:	e6 a1                	out    %al,$0xa1
   30786:	c3                   	ret    
   30787:	90                   	nop
   30788:	90                   	nop
   30789:	90                   	nop
   3078a:	90                   	nop
   3078b:	90                   	nop
   3078c:	90                   	nop
   3078d:	90                   	nop
   3078e:	90                   	nop
   3078f:	90                   	nop

00030790 <hwint13>:
   30790:	e8 d1 00 00 00       	call   30866 <save>
   30795:	e4 a1                	in     $0xa1,%al
   30797:	0c 20                	or     $0x20,%al
   30799:	e6 a1                	out    %al,$0xa1
   3079b:	b0 20                	mov    $0x20,%al
   3079d:	e6 20                	out    %al,$0x20
   3079f:	90                   	nop
   307a0:	e6 a0                	out    %al,$0xa0
   307a2:	fb                   	sti    
   307a3:	68 0d 00 00 00       	push   $0xd
   307a8:	ff 15 34 79 06 00    	call   *0x67934
   307ae:	59                   	pop    %ecx
   307af:	fa                   	cli    
   307b0:	e4 a1                	in     $0xa1,%al
   307b2:	24 df                	and    $0xdf,%al
   307b4:	e6 a1                	out    %al,$0xa1
   307b6:	c3                   	ret    
   307b7:	90                   	nop
   307b8:	90                   	nop
   307b9:	90                   	nop
   307ba:	90                   	nop
   307bb:	90                   	nop
   307bc:	90                   	nop
   307bd:	90                   	nop
   307be:	90                   	nop
   307bf:	90                   	nop

000307c0 <hwint14>:
   307c0:	e8 a1 00 00 00       	call   30866 <save>
   307c5:	e4 a1                	in     $0xa1,%al
   307c7:	0c 40                	or     $0x40,%al
   307c9:	e6 a1                	out    %al,$0xa1
   307cb:	b0 20                	mov    $0x20,%al
   307cd:	e6 20                	out    %al,$0x20
   307cf:	90                   	nop
   307d0:	e6 a0                	out    %al,$0xa0
   307d2:	fb                   	sti    
   307d3:	68 0e 00 00 00       	push   $0xe
   307d8:	ff 15 38 79 06 00    	call   *0x67938
   307de:	59                   	pop    %ecx
   307df:	fa                   	cli    
   307e0:	e4 a1                	in     $0xa1,%al
   307e2:	24 bf                	and    $0xbf,%al
   307e4:	e6 a1                	out    %al,$0xa1
   307e6:	c3                   	ret    
   307e7:	90                   	nop
   307e8:	90                   	nop
   307e9:	90                   	nop
   307ea:	90                   	nop
   307eb:	90                   	nop
   307ec:	90                   	nop
   307ed:	90                   	nop
   307ee:	90                   	nop
   307ef:	90                   	nop

000307f0 <hwint15>:
   307f0:	e8 71 00 00 00       	call   30866 <save>
   307f5:	e4 a1                	in     $0xa1,%al
   307f7:	0c 80                	or     $0x80,%al
   307f9:	e6 a1                	out    %al,$0xa1
   307fb:	b0 20                	mov    $0x20,%al
   307fd:	e6 20                	out    %al,$0x20
   307ff:	90                   	nop
   30800:	e6 a0                	out    %al,$0xa0
   30802:	fb                   	sti    
   30803:	68 0f 00 00 00       	push   $0xf
   30808:	ff 15 3c 79 06 00    	call   *0x6793c
   3080e:	59                   	pop    %ecx
   3080f:	fa                   	cli    
   30810:	e4 a1                	in     $0xa1,%al
   30812:	24 7f                	and    $0x7f,%al
   30814:	e6 a1                	out    %al,$0xa1
   30816:	c3                   	ret    

00030817 <exception>:
   30817:	e8 49 0b 00 00       	call   31365 <exception_handler>
   3081c:	81 c4 08 00 00 00    	add    $0x8,%esp
   30822:	f4                   	hlt    

00030823 <restart>:
   30823:	a1 a0 63 06 00       	mov    0x663a0,%eax
   30828:	3d 00 00 00 00       	cmp    $0x0,%eax
   3082d:	74 0f                	je     3083e <restart.1>
   3082f:	a3 40 79 06 00       	mov    %eax,0x67940
   30834:	c7 05 a0 63 06 00 00 	movl   $0x0,0x663a0
   3083b:	00 00 00 

0003083e <restart.1>:
   3083e:	8b 25 40 79 06 00    	mov    0x67940,%esp
   30844:	0f 00 54 24 48       	lldt   0x48(%esp)
   30849:	8d 44 24 48          	lea    0x48(%esp),%eax
   3084d:	a3 04 70 06 00       	mov    %eax,0x67004

00030852 <restart_reenter>:
   30852:	ff 0d 84 5f 06 00    	decl   0x65f84
   30858:	0f a9                	pop    %gs
   3085a:	0f a1                	pop    %fs
   3085c:	07                   	pop    %es
   3085d:	1f                   	pop    %ds
   3085e:	61                   	popa   
   3085f:	81 c4 04 00 00 00    	add    $0x4,%esp
   30865:	cf                   	iret   

00030866 <save>:
   30866:	60                   	pusha  
   30867:	1e                   	push   %ds
   30868:	06                   	push   %es
   30869:	0f a0                	push   %fs
   3086b:	0f a8                	push   %gs
   3086d:	89 d6                	mov    %edx,%esi
   3086f:	66 8c d2             	mov    %ss,%dx
   30872:	8e da                	mov    %edx,%ds
   30874:	8e c2                	mov    %edx,%es
   30876:	8e e2                	mov    %edx,%fs
   30878:	89 f2                	mov    %esi,%edx
   3087a:	89 e6                	mov    %esp,%esi
   3087c:	ff 05 84 5f 06 00    	incl   0x65f84
   30882:	81 3d 84 5f 06 00 00 	cmpl   $0x0,0x65f84
   30889:	00 00 00 
   3088c:	75 0f                	jne    3089d <save.1>
   3088e:	bc a0 97 03 00       	mov    $0x397a0,%esp
   30893:	68 23 08 03 00       	push   $0x30823
   30898:	31 ed                	xor    %ebp,%ebp
   3089a:	ff 66 30             	jmp    *0x30(%esi)

0003089d <save.1>:
   3089d:	68 52 08 03 00       	push   $0x30852
   308a2:	ff 66 30             	jmp    *0x30(%esi)

000308a5 <ring0_call>:
   308a5:	e8 bc ff ff ff       	call   30866 <save>
   308aa:	ff 25 78 70 06 00    	jmp    *0x67078

000308b0 <sys_call>:
   308b0:	e8 b1 ff ff ff       	call   30866 <save>
   308b5:	fb                   	sti    
   308b6:	56                   	push   %esi
   308b7:	ff 35 40 79 06 00    	pushl  0x67940
   308bd:	52                   	push   %edx
   308be:	51                   	push   %ecx
   308bf:	53                   	push   %ebx
   308c0:	ff 14 85 70 71 03 00 	call   *0x37170(,%eax,4)
   308c7:	81 c4 10 00 00 00    	add    $0x10,%esp
   308cd:	5e                   	pop    %esi
   308ce:	89 46 2c             	mov    %eax,0x2c(%esi)
   308d1:	fa                   	cli    
   308d2:	c3                   	ret    
   308d3:	90                   	nop
   308d4:	90                   	nop
   308d5:	90                   	nop
   308d6:	90                   	nop
   308d7:	90                   	nop
   308d8:	90                   	nop
   308d9:	90                   	nop
   308da:	90                   	nop
   308db:	90                   	nop
   308dc:	90                   	nop
   308dd:	90                   	nop
   308de:	90                   	nop
   308df:	90                   	nop

000308e0 <task_idle>:
   308e0:	68 f5 08 03 00       	push   $0x308f5
   308e5:	e8 0f 00 00 00       	call   308f9 <run_in_ring0>
   308ea:	81 c4 04 00 00 00    	add    $0x4,%esp
   308f0:	e9 eb ff ff ff       	jmp    308e0 <task_idle>

000308f5 <do_halt>:
   308f5:	fb                   	sti    
   308f6:	f4                   	hlt    
   308f7:	fa                   	cli    
   308f8:	c3                   	ret    

000308f9 <run_in_ring0>:
   308f9:	8b 44 24 04          	mov    0x4(%esp),%eax
   308fd:	a3 78 70 06 00       	mov    %eax,0x67078
   30902:	cd 80                	int    $0x80
   30904:	c3                   	ret    

00030905 <disp_str>:
   30905:	55                   	push   %ebp
   30906:	89 e5                	mov    %esp,%ebp
   30908:	8b 75 08             	mov    0x8(%ebp),%esi
   3090b:	8b 3d 74 70 06 00    	mov    0x67074,%edi
   30911:	b4 0f                	mov    $0xf,%ah

00030913 <disp_str.1>:
   30913:	ac                   	lods   %ds:(%esi),%al
   30914:	84 c0                	test   %al,%al
   30916:	74 2c                	je     30944 <disp_str.2>
   30918:	3c 0a                	cmp    $0xa,%al
   3091a:	75 19                	jne    30935 <disp_str.3>
   3091c:	50                   	push   %eax
   3091d:	89 f8                	mov    %edi,%eax
   3091f:	b3 a0                	mov    $0xa0,%bl
   30921:	f6 f3                	div    %bl
   30923:	25 ff 00 00 00       	and    $0xff,%eax
   30928:	40                   	inc    %eax
   30929:	b3 a0                	mov    $0xa0,%bl
   3092b:	f6 e3                	mul    %bl
   3092d:	89 c7                	mov    %eax,%edi
   3092f:	58                   	pop    %eax
   30930:	e9 de ff ff ff       	jmp    30913 <disp_str.1>

00030935 <disp_str.3>:
   30935:	65 66 89 07          	mov    %ax,%gs:(%edi)
   30939:	81 c7 02 00 00 00    	add    $0x2,%edi
   3093f:	e9 cf ff ff ff       	jmp    30913 <disp_str.1>

00030944 <disp_str.2>:
   30944:	89 3d 74 70 06 00    	mov    %edi,0x67074
   3094a:	5d                   	pop    %ebp
   3094b:	c3                   	ret    

0003094c <disp_color_str>:
   3094c:	55                   	push   %ebp
   3094d:	89 e5                	mov    %esp,%ebp
   3094f:	8b 75 08             	mov    0x8(%ebp),%esi
   30952:	8b 3d 74 70 06 00    	mov    0x67074,%edi
   30958:	8a 65 0c             	mov    0xc(%ebp),%ah

0003095b <disp_color_str.1>:
   3095b:	ac                   	lods   %ds:(%esi),%al
   3095c:	84 c0                	test   %al,%al
   3095e:	74 2c                	je     3098c <disp_color_str.2>
   30960:	3c 0a                	cmp    $0xa,%al
   30962:	75 19                	jne    3097d <disp_color_str.3>
   30964:	50                   	push   %eax
   30965:	89 f8                	mov    %edi,%eax
   30967:	b3 a0                	mov    $0xa0,%bl
   30969:	f6 f3                	div    %bl
   3096b:	25 ff 00 00 00       	and    $0xff,%eax
   30970:	40                   	inc    %eax
   30971:	b3 a0                	mov    $0xa0,%bl
   30973:	f6 e3                	mul    %bl
   30975:	89 c7                	mov    %eax,%edi
   30977:	58                   	pop    %eax
   30978:	e9 de ff ff ff       	jmp    3095b <disp_color_str.1>

0003097d <disp_color_str.3>:
   3097d:	65 66 89 07          	mov    %ax,%gs:(%edi)
   30981:	81 c7 02 00 00 00    	add    $0x2,%edi
   30987:	e9 cf ff ff ff       	jmp    3095b <disp_color_str.1>

0003098c <disp_color_str.2>:
   3098c:	89 3d 74 70 06 00    	mov    %edi,0x67074
   30992:	5d                   	pop    %ebp
   30993:	c3                   	ret    

00030994 <out_byte>:
   30994:	8b 54 24 04          	mov    0x4(%esp),%edx
   30998:	8a 44 24 08          	mov    0x8(%esp),%al
   3099c:	ee                   	out    %al,(%dx)
   3099d:	90                   	nop
   3099e:	90                   	nop
   3099f:	c3                   	ret    

000309a0 <in_byte>:
   309a0:	8b 54 24 04          	mov    0x4(%esp),%edx
   309a4:	31 c0                	xor    %eax,%eax
   309a6:	ec                   	in     (%dx),%al
   309a7:	90                   	nop
   309a8:	90                   	nop
   309a9:	c3                   	ret    

000309aa <disable_irq>:
   309aa:	8b 4c 24 04          	mov    0x4(%esp),%ecx
   309ae:	9c                   	pushf  
   309af:	fa                   	cli    
   309b0:	b4 01                	mov    $0x1,%ah
   309b2:	d2 c4                	rol    %cl,%ah
   309b4:	80 f9 08             	cmp    $0x8,%cl
   309b7:	73 11                	jae    309ca <disable_8>

000309b9 <disable_0>:
   309b9:	e4 21                	in     $0x21,%al
   309bb:	84 e0                	test   %ah,%al
   309bd:	75 1c                	jne    309db <dis_already>
   309bf:	08 e0                	or     %ah,%al
   309c1:	e6 21                	out    %al,$0x21
   309c3:	9d                   	popf   
   309c4:	b8 01 00 00 00       	mov    $0x1,%eax
   309c9:	c3                   	ret    

000309ca <disable_8>:
   309ca:	e4 a1                	in     $0xa1,%al
   309cc:	84 e0                	test   %ah,%al
   309ce:	75 0b                	jne    309db <dis_already>
   309d0:	08 e0                	or     %ah,%al
   309d2:	e6 a1                	out    %al,$0xa1
   309d4:	9d                   	popf   
   309d5:	b8 01 00 00 00       	mov    $0x1,%eax
   309da:	c3                   	ret    

000309db <dis_already>:
   309db:	9d                   	popf   
   309dc:	31 c0                	xor    %eax,%eax
   309de:	c3                   	ret    

000309df <enable_irq>:
   309df:	8b 4c 24 04          	mov    0x4(%esp),%ecx
   309e3:	9c                   	pushf  
   309e4:	fa                   	cli    
   309e5:	b4 fe                	mov    $0xfe,%ah
   309e7:	d2 c4                	rol    %cl,%ah
   309e9:	80 f9 08             	cmp    $0x8,%cl
   309ec:	73 08                	jae    309f6 <enable_8>

000309ee <enable_0>:
   309ee:	e4 21                	in     $0x21,%al
   309f0:	20 e0                	and    %ah,%al
   309f2:	e6 21                	out    %al,$0x21
   309f4:	9d                   	popf   
   309f5:	c3                   	ret    

000309f6 <enable_8>:
   309f6:	e4 a1                	in     $0xa1,%al
   309f8:	20 e0                	and    %ah,%al
   309fa:	e6 a1                	out    %al,$0xa1
   309fc:	9d                   	popf   
   309fd:	c3                   	ret    

000309fe <disable_int>:
   309fe:	fa                   	cli    
   309ff:	c3                   	ret    

00030a00 <enable_int>:
   30a00:	fb                   	sti    
   30a01:	c3                   	ret    

00030a02 <port_read>:
   30a02:	8b 54 24 04          	mov    0x4(%esp),%edx
   30a06:	8b 7c 24 08          	mov    0x8(%esp),%edi
   30a0a:	8b 4c 24 0c          	mov    0xc(%esp),%ecx
   30a0e:	d1 e9                	shr    %ecx
   30a10:	fc                   	cld    
   30a11:	f3 66 6d             	rep insw (%dx),%es:(%edi)
   30a14:	c3                   	ret    

00030a15 <port_write>:
   30a15:	8b 54 24 04          	mov    0x4(%esp),%edx
   30a19:	8b 74 24 08          	mov    0x8(%esp),%esi
   30a1d:	8b 4c 24 0c          	mov    0xc(%esp),%ecx
   30a21:	d1 e9                	shr    %ecx
   30a23:	fc                   	cld    
   30a24:	f3 66 6f             	rep outsw %ds:(%esi),(%dx)
   30a27:	c3                   	ret    
   30a28:	90                   	nop
   30a29:	90                   	nop
   30a2a:	90                   	nop
   30a2b:	90                   	nop
   30a2c:	90                   	nop
   30a2d:	90                   	nop
   30a2e:	90                   	nop
   30a2f:	90                   	nop

00030a30 <memcpy>:
   30a30:	55                   	push   %ebp
   30a31:	89 e5                	mov    %esp,%ebp
   30a33:	56                   	push   %esi
   30a34:	57                   	push   %edi
   30a35:	51                   	push   %ecx
   30a36:	8b 7d 08             	mov    0x8(%ebp),%edi
   30a39:	8b 75 0c             	mov    0xc(%ebp),%esi
   30a3c:	8b 4d 10             	mov    0x10(%ebp),%ecx

00030a3f <memcpy.1>:
   30a3f:	81 f9 00 00 00 00    	cmp    $0x0,%ecx
   30a45:	74 0e                	je     30a55 <memcpy.2>
   30a47:	3e 8a 06             	mov    %ds:(%esi),%al
   30a4a:	46                   	inc    %esi
   30a4b:	26 88 07             	mov    %al,%es:(%edi)
   30a4e:	47                   	inc    %edi
   30a4f:	49                   	dec    %ecx
   30a50:	e9 ea ff ff ff       	jmp    30a3f <memcpy.1>

00030a55 <memcpy.2>:
   30a55:	8b 45 08             	mov    0x8(%ebp),%eax
   30a58:	59                   	pop    %ecx
   30a59:	5f                   	pop    %edi
   30a5a:	5e                   	pop    %esi
   30a5b:	89 ec                	mov    %ebp,%esp
   30a5d:	5d                   	pop    %ebp
   30a5e:	c3                   	ret    

00030a5f <memset>:
   30a5f:	55                   	push   %ebp
   30a60:	89 e5                	mov    %esp,%ebp
   30a62:	56                   	push   %esi
   30a63:	57                   	push   %edi
   30a64:	51                   	push   %ecx
   30a65:	8b 7d 08             	mov    0x8(%ebp),%edi
   30a68:	8b 55 0c             	mov    0xc(%ebp),%edx
   30a6b:	8b 4d 10             	mov    0x10(%ebp),%ecx

00030a6e <memset.1>:
   30a6e:	81 f9 00 00 00 00    	cmp    $0x0,%ecx
   30a74:	74 09                	je     30a7f <memset.2>
   30a76:	88 17                	mov    %dl,(%edi)
   30a78:	47                   	inc    %edi
   30a79:	49                   	dec    %ecx
   30a7a:	e9 ef ff ff ff       	jmp    30a6e <memset.1>

00030a7f <memset.2>:
   30a7f:	59                   	pop    %ecx
   30a80:	5f                   	pop    %edi
   30a81:	5e                   	pop    %esi
   30a82:	89 ec                	mov    %ebp,%esp
   30a84:	5d                   	pop    %ebp
   30a85:	c3                   	ret    

00030a86 <strcpy>:
   30a86:	55                   	push   %ebp
   30a87:	89 e5                	mov    %esp,%ebp
   30a89:	8b 75 0c             	mov    0xc(%ebp),%esi
   30a8c:	8b 7d 08             	mov    0x8(%ebp),%edi

00030a8f <strcpy.1>:
   30a8f:	8a 06                	mov    (%esi),%al
   30a91:	46                   	inc    %esi
   30a92:	88 07                	mov    %al,(%edi)
   30a94:	47                   	inc    %edi
   30a95:	3c 00                	cmp    $0x0,%al
   30a97:	75 f6                	jne    30a8f <strcpy.1>
   30a99:	8b 45 08             	mov    0x8(%ebp),%eax
   30a9c:	5d                   	pop    %ebp
   30a9d:	c3                   	ret    

00030a9e <strlen>:
   30a9e:	55                   	push   %ebp
   30a9f:	89 e5                	mov    %esp,%ebp
   30aa1:	b8 00 00 00 00       	mov    $0x0,%eax
   30aa6:	8b 75 08             	mov    0x8(%ebp),%esi

00030aa9 <strlen.1>:
   30aa9:	80 3e 00             	cmpb   $0x0,(%esi)
   30aac:	74 07                	je     30ab5 <strlen.2>
   30aae:	46                   	inc    %esi
   30aaf:	40                   	inc    %eax
   30ab0:	e9 f4 ff ff ff       	jmp    30aa9 <strlen.1>

00030ab5 <strlen.2>:
   30ab5:	5d                   	pop    %ebp
   30ab6:	c3                   	ret    
   30ab7:	90                   	nop

00030ab8 <cstart>:
   30ab8:	55                   	push   %ebp
   30ab9:	89 e5                	mov    %esp,%ebp
   30abb:	83 ec 28             	sub    $0x28,%esp
   30abe:	c7 04 24 e0 59 03 00 	movl   $0x359e0,(%esp)
   30ac5:	e8 3b fe ff ff       	call   30905 <disp_str>
   30aca:	b8 7c 70 06 00       	mov    $0x6707c,%eax
   30acf:	0f b7 00             	movzwl (%eax),%eax
   30ad2:	0f b7 c0             	movzwl %ax,%eax
   30ad5:	8d 50 01             	lea    0x1(%eax),%edx
   30ad8:	b8 7e 70 06 00       	mov    $0x6707e,%eax
   30add:	8b 00                	mov    (%eax),%eax
   30adf:	89 54 24 08          	mov    %edx,0x8(%esp)
   30ae3:	89 44 24 04          	mov    %eax,0x4(%esp)
   30ae7:	c7 04 24 a0 5f 06 00 	movl   $0x65fa0,(%esp)
   30aee:	e8 3d ff ff ff       	call   30a30 <memcpy>
   30af3:	c7 45 e8 7c 70 06 00 	movl   $0x6707c,-0x18(%ebp)
   30afa:	c7 45 ec 7e 70 06 00 	movl   $0x6707e,-0x14(%ebp)
   30b01:	8b 45 e8             	mov    -0x18(%ebp),%eax
   30b04:	66 c7 00 ff 03       	movw   $0x3ff,(%eax)
   30b09:	ba a0 5f 06 00       	mov    $0x65fa0,%edx
   30b0e:	8b 45 ec             	mov    -0x14(%ebp),%eax
   30b11:	89 10                	mov    %edx,(%eax)
   30b13:	c7 45 f0 60 9f 03 00 	movl   $0x39f60,-0x10(%ebp)
   30b1a:	c7 45 f4 62 9f 03 00 	movl   $0x39f62,-0xc(%ebp)
   30b21:	8b 45 f0             	mov    -0x10(%ebp),%eax
   30b24:	66 c7 00 ff 07       	movw   $0x7ff,(%eax)
   30b29:	ba a0 70 06 00       	mov    $0x670a0,%edx
   30b2e:	8b 45 f4             	mov    -0xc(%ebp),%eax
   30b31:	89 10                	mov    %edx,(%eax)
   30b33:	e8 4c 01 00 00       	call   30c84 <init_prot>
   30b38:	c7 04 24 0a 5a 03 00 	movl   $0x35a0a,(%esp)
   30b3f:	e8 c1 fd ff ff       	call   30905 <disp_str>
   30b44:	c9                   	leave  
   30b45:	c3                   	ret    
   30b46:	90                   	nop
   30b47:	90                   	nop

00030b48 <init_8259A>:
   30b48:	55                   	push   %ebp
   30b49:	89 e5                	mov    %esp,%ebp
   30b4b:	83 ec 28             	sub    $0x28,%esp
   30b4e:	c7 44 24 04 11 00 00 	movl   $0x11,0x4(%esp)
   30b55:	00 
   30b56:	c7 04 24 20 00 00 00 	movl   $0x20,(%esp)
   30b5d:	e8 32 fe ff ff       	call   30994 <out_byte>
   30b62:	c7 44 24 04 11 00 00 	movl   $0x11,0x4(%esp)
   30b69:	00 
   30b6a:	c7 04 24 a0 00 00 00 	movl   $0xa0,(%esp)
   30b71:	e8 1e fe ff ff       	call   30994 <out_byte>
   30b76:	c7 44 24 04 20 00 00 	movl   $0x20,0x4(%esp)
   30b7d:	00 
   30b7e:	c7 04 24 21 00 00 00 	movl   $0x21,(%esp)
   30b85:	e8 0a fe ff ff       	call   30994 <out_byte>
   30b8a:	c7 44 24 04 28 00 00 	movl   $0x28,0x4(%esp)
   30b91:	00 
   30b92:	c7 04 24 a1 00 00 00 	movl   $0xa1,(%esp)
   30b99:	e8 f6 fd ff ff       	call   30994 <out_byte>
   30b9e:	c7 44 24 04 04 00 00 	movl   $0x4,0x4(%esp)
   30ba5:	00 
   30ba6:	c7 04 24 21 00 00 00 	movl   $0x21,(%esp)
   30bad:	e8 e2 fd ff ff       	call   30994 <out_byte>
   30bb2:	c7 44 24 04 02 00 00 	movl   $0x2,0x4(%esp)
   30bb9:	00 
   30bba:	c7 04 24 a1 00 00 00 	movl   $0xa1,(%esp)
   30bc1:	e8 ce fd ff ff       	call   30994 <out_byte>
   30bc6:	c7 44 24 04 01 00 00 	movl   $0x1,0x4(%esp)
   30bcd:	00 
   30bce:	c7 04 24 21 00 00 00 	movl   $0x21,(%esp)
   30bd5:	e8 ba fd ff ff       	call   30994 <out_byte>
   30bda:	c7 44 24 04 01 00 00 	movl   $0x1,0x4(%esp)
   30be1:	00 
   30be2:	c7 04 24 a1 00 00 00 	movl   $0xa1,(%esp)
   30be9:	e8 a6 fd ff ff       	call   30994 <out_byte>
   30bee:	c7 44 24 04 ff 00 00 	movl   $0xff,0x4(%esp)
   30bf5:	00 
   30bf6:	c7 04 24 21 00 00 00 	movl   $0x21,(%esp)
   30bfd:	e8 92 fd ff ff       	call   30994 <out_byte>
   30c02:	c7 44 24 04 ff 00 00 	movl   $0xff,0x4(%esp)
   30c09:	00 
   30c0a:	c7 04 24 a1 00 00 00 	movl   $0xa1,(%esp)
   30c11:	e8 7e fd ff ff       	call   30994 <out_byte>
   30c16:	c7 45 f4 00 00 00 00 	movl   $0x0,-0xc(%ebp)
   30c1d:	eb 12                	jmp    30c31 <init_8259A+0xe9>
   30c1f:	8b 45 f4             	mov    -0xc(%ebp),%eax
   30c22:	c7 04 85 00 79 06 00 	movl   $0x30c39,0x67900(,%eax,4)
   30c29:	39 0c 03 00 
   30c2d:	83 45 f4 01          	addl   $0x1,-0xc(%ebp)
   30c31:	83 7d f4 0f          	cmpl   $0xf,-0xc(%ebp)
   30c35:	7e e8                	jle    30c1f <init_8259A+0xd7>
   30c37:	c9                   	leave  
   30c38:	c3                   	ret    

00030c39 <spurious_irq>:
   30c39:	55                   	push   %ebp
   30c3a:	89 e5                	mov    %esp,%ebp
   30c3c:	83 ec 18             	sub    $0x18,%esp
   30c3f:	c7 04 24 23 5a 03 00 	movl   $0x35a23,(%esp)
   30c46:	e8 ba fc ff ff       	call   30905 <disp_str>
   30c4b:	8b 45 08             	mov    0x8(%ebp),%eax
   30c4e:	89 04 24             	mov    %eax,(%esp)
   30c51:	e8 5c 0f 00 00       	call   31bb2 <disp_int>
   30c56:	c7 04 24 35 5a 03 00 	movl   $0x35a35,(%esp)
   30c5d:	e8 a3 fc ff ff       	call   30905 <disp_str>
   30c62:	c9                   	leave  
   30c63:	c3                   	ret    

00030c64 <put_irq_handler>:
   30c64:	55                   	push   %ebp
   30c65:	89 e5                	mov    %esp,%ebp
   30c67:	83 ec 18             	sub    $0x18,%esp
   30c6a:	8b 45 08             	mov    0x8(%ebp),%eax
   30c6d:	89 04 24             	mov    %eax,(%esp)
   30c70:	e8 35 fd ff ff       	call   309aa <disable_irq>
   30c75:	8b 45 08             	mov    0x8(%ebp),%eax
   30c78:	8b 55 0c             	mov    0xc(%ebp),%edx
   30c7b:	89 14 85 00 79 06 00 	mov    %edx,0x67900(,%eax,4)
   30c82:	c9                   	leave  
   30c83:	c3                   	ret    

00030c84 <init_prot>:
   30c84:	55                   	push   %ebp
   30c85:	89 e5                	mov    %esp,%ebp
   30c87:	83 ec 28             	sub    $0x28,%esp
   30c8a:	e8 b9 fe ff ff       	call   30b48 <init_8259A>
   30c8f:	c7 44 24 0c 00 00 00 	movl   $0x0,0xc(%esp)
   30c96:	00 
   30c97:	c7 44 24 08 48 04 03 	movl   $0x30448,0x8(%esp)
   30c9e:	00 
   30c9f:	c7 44 24 04 8e 00 00 	movl   $0x8e,0x4(%esp)
   30ca6:	00 
   30ca7:	c7 04 24 00 00 00 00 	movl   $0x0,(%esp)
   30cae:	e8 87 05 00 00       	call   3123a <init_idt_desc>
   30cb3:	c7 44 24 0c 00 00 00 	movl   $0x0,0xc(%esp)
   30cba:	00 
   30cbb:	c7 44 24 08 57 04 03 	movl   $0x30457,0x8(%esp)
   30cc2:	00 
   30cc3:	c7 44 24 04 8e 00 00 	movl   $0x8e,0x4(%esp)
   30cca:	00 
   30ccb:	c7 04 24 01 00 00 00 	movl   $0x1,(%esp)
   30cd2:	e8 63 05 00 00       	call   3123a <init_idt_desc>
   30cd7:	c7 44 24 0c 00 00 00 	movl   $0x0,0xc(%esp)
   30cde:	00 
   30cdf:	c7 44 24 08 66 04 03 	movl   $0x30466,0x8(%esp)
   30ce6:	00 
   30ce7:	c7 44 24 04 8e 00 00 	movl   $0x8e,0x4(%esp)
   30cee:	00 
   30cef:	c7 04 24 02 00 00 00 	movl   $0x2,(%esp)
   30cf6:	e8 3f 05 00 00       	call   3123a <init_idt_desc>
   30cfb:	c7 44 24 0c 03 00 00 	movl   $0x3,0xc(%esp)
   30d02:	00 
   30d03:	c7 44 24 08 75 04 03 	movl   $0x30475,0x8(%esp)
   30d0a:	00 
   30d0b:	c7 44 24 04 8e 00 00 	movl   $0x8e,0x4(%esp)
   30d12:	00 
   30d13:	c7 04 24 03 00 00 00 	movl   $0x3,(%esp)
   30d1a:	e8 1b 05 00 00       	call   3123a <init_idt_desc>
   30d1f:	c7 44 24 0c 03 00 00 	movl   $0x3,0xc(%esp)
   30d26:	00 
   30d27:	c7 44 24 08 84 04 03 	movl   $0x30484,0x8(%esp)
   30d2e:	00 
   30d2f:	c7 44 24 04 8e 00 00 	movl   $0x8e,0x4(%esp)
   30d36:	00 
   30d37:	c7 04 24 04 00 00 00 	movl   $0x4,(%esp)
   30d3e:	e8 f7 04 00 00       	call   3123a <init_idt_desc>
   30d43:	c7 44 24 0c 00 00 00 	movl   $0x0,0xc(%esp)
   30d4a:	00 
   30d4b:	c7 44 24 08 93 04 03 	movl   $0x30493,0x8(%esp)
   30d52:	00 
   30d53:	c7 44 24 04 8e 00 00 	movl   $0x8e,0x4(%esp)
   30d5a:	00 
   30d5b:	c7 04 24 05 00 00 00 	movl   $0x5,(%esp)
   30d62:	e8 d3 04 00 00       	call   3123a <init_idt_desc>
   30d67:	c7 44 24 0c 00 00 00 	movl   $0x0,0xc(%esp)
   30d6e:	00 
   30d6f:	c7 44 24 08 a2 04 03 	movl   $0x304a2,0x8(%esp)
   30d76:	00 
   30d77:	c7 44 24 04 8e 00 00 	movl   $0x8e,0x4(%esp)
   30d7e:	00 
   30d7f:	c7 04 24 06 00 00 00 	movl   $0x6,(%esp)
   30d86:	e8 af 04 00 00       	call   3123a <init_idt_desc>
   30d8b:	c7 44 24 0c 00 00 00 	movl   $0x0,0xc(%esp)
   30d92:	00 
   30d93:	c7 44 24 08 b1 04 03 	movl   $0x304b1,0x8(%esp)
   30d9a:	00 
   30d9b:	c7 44 24 04 8e 00 00 	movl   $0x8e,0x4(%esp)
   30da2:	00 
   30da3:	c7 04 24 07 00 00 00 	movl   $0x7,(%esp)
   30daa:	e8 8b 04 00 00       	call   3123a <init_idt_desc>
   30daf:	c7 44 24 0c 00 00 00 	movl   $0x0,0xc(%esp)
   30db6:	00 
   30db7:	c7 44 24 08 c0 04 03 	movl   $0x304c0,0x8(%esp)
   30dbe:	00 
   30dbf:	c7 44 24 04 8e 00 00 	movl   $0x8e,0x4(%esp)
   30dc6:	00 
   30dc7:	c7 04 24 08 00 00 00 	movl   $0x8,(%esp)
   30dce:	e8 67 04 00 00       	call   3123a <init_idt_desc>
   30dd3:	c7 44 24 0c 00 00 00 	movl   $0x0,0xc(%esp)
   30dda:	00 
   30ddb:	c7 44 24 08 ca 04 03 	movl   $0x304ca,0x8(%esp)
   30de2:	00 
   30de3:	c7 44 24 04 8e 00 00 	movl   $0x8e,0x4(%esp)
   30dea:	00 
   30deb:	c7 04 24 09 00 00 00 	movl   $0x9,(%esp)
   30df2:	e8 43 04 00 00       	call   3123a <init_idt_desc>
   30df7:	c7 44 24 0c 00 00 00 	movl   $0x0,0xc(%esp)
   30dfe:	00 
   30dff:	c7 44 24 08 d9 04 03 	movl   $0x304d9,0x8(%esp)
   30e06:	00 
   30e07:	c7 44 24 04 8e 00 00 	movl   $0x8e,0x4(%esp)
   30e0e:	00 
   30e0f:	c7 04 24 0a 00 00 00 	movl   $0xa,(%esp)
   30e16:	e8 1f 04 00 00       	call   3123a <init_idt_desc>
   30e1b:	c7 44 24 0c 00 00 00 	movl   $0x0,0xc(%esp)
   30e22:	00 
   30e23:	c7 44 24 08 e3 04 03 	movl   $0x304e3,0x8(%esp)
   30e2a:	00 
   30e2b:	c7 44 24 04 8e 00 00 	movl   $0x8e,0x4(%esp)
   30e32:	00 
   30e33:	c7 04 24 0b 00 00 00 	movl   $0xb,(%esp)
   30e3a:	e8 fb 03 00 00       	call   3123a <init_idt_desc>
   30e3f:	c7 44 24 0c 00 00 00 	movl   $0x0,0xc(%esp)
   30e46:	00 
   30e47:	c7 44 24 08 ed 04 03 	movl   $0x304ed,0x8(%esp)
   30e4e:	00 
   30e4f:	c7 44 24 04 8e 00 00 	movl   $0x8e,0x4(%esp)
   30e56:	00 
   30e57:	c7 04 24 0c 00 00 00 	movl   $0xc,(%esp)
   30e5e:	e8 d7 03 00 00       	call   3123a <init_idt_desc>
   30e63:	c7 44 24 0c 00 00 00 	movl   $0x0,0xc(%esp)
   30e6a:	00 
   30e6b:	c7 44 24 08 f7 04 03 	movl   $0x304f7,0x8(%esp)
   30e72:	00 
   30e73:	c7 44 24 04 8e 00 00 	movl   $0x8e,0x4(%esp)
   30e7a:	00 
   30e7b:	c7 04 24 0d 00 00 00 	movl   $0xd,(%esp)
   30e82:	e8 b3 03 00 00       	call   3123a <init_idt_desc>
   30e87:	c7 44 24 0c 00 00 00 	movl   $0x0,0xc(%esp)
   30e8e:	00 
   30e8f:	c7 44 24 08 01 05 03 	movl   $0x30501,0x8(%esp)
   30e96:	00 
   30e97:	c7 44 24 04 8e 00 00 	movl   $0x8e,0x4(%esp)
   30e9e:	00 
   30e9f:	c7 04 24 0e 00 00 00 	movl   $0xe,(%esp)
   30ea6:	e8 8f 03 00 00       	call   3123a <init_idt_desc>
   30eab:	c7 44 24 0c 00 00 00 	movl   $0x0,0xc(%esp)
   30eb2:	00 
   30eb3:	c7 44 24 08 0b 05 03 	movl   $0x3050b,0x8(%esp)
   30eba:	00 
   30ebb:	c7 44 24 04 8e 00 00 	movl   $0x8e,0x4(%esp)
   30ec2:	00 
   30ec3:	c7 04 24 10 00 00 00 	movl   $0x10,(%esp)
   30eca:	e8 6b 03 00 00       	call   3123a <init_idt_desc>
   30ecf:	c7 44 24 0c 00 00 00 	movl   $0x0,0xc(%esp)
   30ed6:	00 
   30ed7:	c7 44 24 08 20 05 03 	movl   $0x30520,0x8(%esp)
   30ede:	00 
   30edf:	c7 44 24 04 8e 00 00 	movl   $0x8e,0x4(%esp)
   30ee6:	00 
   30ee7:	c7 04 24 20 00 00 00 	movl   $0x20,(%esp)
   30eee:	e8 47 03 00 00       	call   3123a <init_idt_desc>
   30ef3:	c7 44 24 0c 00 00 00 	movl   $0x0,0xc(%esp)
   30efa:	00 
   30efb:	c7 44 24 08 50 05 03 	movl   $0x30550,0x8(%esp)
   30f02:	00 
   30f03:	c7 44 24 04 8e 00 00 	movl   $0x8e,0x4(%esp)
   30f0a:	00 
   30f0b:	c7 04 24 21 00 00 00 	movl   $0x21,(%esp)
   30f12:	e8 23 03 00 00       	call   3123a <init_idt_desc>
   30f17:	c7 44 24 0c 00 00 00 	movl   $0x0,0xc(%esp)
   30f1e:	00 
   30f1f:	c7 44 24 08 80 05 03 	movl   $0x30580,0x8(%esp)
   30f26:	00 
   30f27:	c7 44 24 04 8e 00 00 	movl   $0x8e,0x4(%esp)
   30f2e:	00 
   30f2f:	c7 04 24 22 00 00 00 	movl   $0x22,(%esp)
   30f36:	e8 ff 02 00 00       	call   3123a <init_idt_desc>
   30f3b:	c7 44 24 0c 00 00 00 	movl   $0x0,0xc(%esp)
   30f42:	00 
   30f43:	c7 44 24 08 b0 05 03 	movl   $0x305b0,0x8(%esp)
   30f4a:	00 
   30f4b:	c7 44 24 04 8e 00 00 	movl   $0x8e,0x4(%esp)
   30f52:	00 
   30f53:	c7 04 24 23 00 00 00 	movl   $0x23,(%esp)
   30f5a:	e8 db 02 00 00       	call   3123a <init_idt_desc>
   30f5f:	c7 44 24 0c 00 00 00 	movl   $0x0,0xc(%esp)
   30f66:	00 
   30f67:	c7 44 24 08 e0 05 03 	movl   $0x305e0,0x8(%esp)
   30f6e:	00 
   30f6f:	c7 44 24 04 8e 00 00 	movl   $0x8e,0x4(%esp)
   30f76:	00 
   30f77:	c7 04 24 24 00 00 00 	movl   $0x24,(%esp)
   30f7e:	e8 b7 02 00 00       	call   3123a <init_idt_desc>
   30f83:	c7 44 24 0c 00 00 00 	movl   $0x0,0xc(%esp)
   30f8a:	00 
   30f8b:	c7 44 24 08 10 06 03 	movl   $0x30610,0x8(%esp)
   30f92:	00 
   30f93:	c7 44 24 04 8e 00 00 	movl   $0x8e,0x4(%esp)
   30f9a:	00 
   30f9b:	c7 04 24 25 00 00 00 	movl   $0x25,(%esp)
   30fa2:	e8 93 02 00 00       	call   3123a <init_idt_desc>
   30fa7:	c7 44 24 0c 00 00 00 	movl   $0x0,0xc(%esp)
   30fae:	00 
   30faf:	c7 44 24 08 40 06 03 	movl   $0x30640,0x8(%esp)
   30fb6:	00 
   30fb7:	c7 44 24 04 8e 00 00 	movl   $0x8e,0x4(%esp)
   30fbe:	00 
   30fbf:	c7 04 24 26 00 00 00 	movl   $0x26,(%esp)
   30fc6:	e8 6f 02 00 00       	call   3123a <init_idt_desc>
   30fcb:	c7 44 24 0c 00 00 00 	movl   $0x0,0xc(%esp)
   30fd2:	00 
   30fd3:	c7 44 24 08 70 06 03 	movl   $0x30670,0x8(%esp)
   30fda:	00 
   30fdb:	c7 44 24 04 8e 00 00 	movl   $0x8e,0x4(%esp)
   30fe2:	00 
   30fe3:	c7 04 24 27 00 00 00 	movl   $0x27,(%esp)
   30fea:	e8 4b 02 00 00       	call   3123a <init_idt_desc>
   30fef:	c7 44 24 0c 00 00 00 	movl   $0x0,0xc(%esp)
   30ff6:	00 
   30ff7:	c7 44 24 08 a0 06 03 	movl   $0x306a0,0x8(%esp)
   30ffe:	00 
   30fff:	c7 44 24 04 8e 00 00 	movl   $0x8e,0x4(%esp)
   31006:	00 
   31007:	c7 04 24 28 00 00 00 	movl   $0x28,(%esp)
   3100e:	e8 27 02 00 00       	call   3123a <init_idt_desc>
   31013:	c7 44 24 0c 00 00 00 	movl   $0x0,0xc(%esp)
   3101a:	00 
   3101b:	c7 44 24 08 d0 06 03 	movl   $0x306d0,0x8(%esp)
   31022:	00 
   31023:	c7 44 24 04 8e 00 00 	movl   $0x8e,0x4(%esp)
   3102a:	00 
   3102b:	c7 04 24 29 00 00 00 	movl   $0x29,(%esp)
   31032:	e8 03 02 00 00       	call   3123a <init_idt_desc>
   31037:	c7 44 24 0c 00 00 00 	movl   $0x0,0xc(%esp)
   3103e:	00 
   3103f:	c7 44 24 08 00 07 03 	movl   $0x30700,0x8(%esp)
   31046:	00 
   31047:	c7 44 24 04 8e 00 00 	movl   $0x8e,0x4(%esp)
   3104e:	00 
   3104f:	c7 04 24 2a 00 00 00 	movl   $0x2a,(%esp)
   31056:	e8 df 01 00 00       	call   3123a <init_idt_desc>
   3105b:	c7 44 24 0c 00 00 00 	movl   $0x0,0xc(%esp)
   31062:	00 
   31063:	c7 44 24 08 30 07 03 	movl   $0x30730,0x8(%esp)
   3106a:	00 
   3106b:	c7 44 24 04 8e 00 00 	movl   $0x8e,0x4(%esp)
   31072:	00 
   31073:	c7 04 24 2b 00 00 00 	movl   $0x2b,(%esp)
   3107a:	e8 bb 01 00 00       	call   3123a <init_idt_desc>
   3107f:	c7 44 24 0c 00 00 00 	movl   $0x0,0xc(%esp)
   31086:	00 
   31087:	c7 44 24 08 60 07 03 	movl   $0x30760,0x8(%esp)
   3108e:	00 
   3108f:	c7 44 24 04 8e 00 00 	movl   $0x8e,0x4(%esp)
   31096:	00 
   31097:	c7 04 24 2c 00 00 00 	movl   $0x2c,(%esp)
   3109e:	e8 97 01 00 00       	call   3123a <init_idt_desc>
   310a3:	c7 44 24 0c 00 00 00 	movl   $0x0,0xc(%esp)
   310aa:	00 
   310ab:	c7 44 24 08 90 07 03 	movl   $0x30790,0x8(%esp)
   310b2:	00 
   310b3:	c7 44 24 04 8e 00 00 	movl   $0x8e,0x4(%esp)
   310ba:	00 
   310bb:	c7 04 24 2d 00 00 00 	movl   $0x2d,(%esp)
   310c2:	e8 73 01 00 00       	call   3123a <init_idt_desc>
   310c7:	c7 44 24 0c 00 00 00 	movl   $0x0,0xc(%esp)
   310ce:	00 
   310cf:	c7 44 24 08 c0 07 03 	movl   $0x307c0,0x8(%esp)
   310d6:	00 
   310d7:	c7 44 24 04 8e 00 00 	movl   $0x8e,0x4(%esp)
   310de:	00 
   310df:	c7 04 24 2e 00 00 00 	movl   $0x2e,(%esp)
   310e6:	e8 4f 01 00 00       	call   3123a <init_idt_desc>
   310eb:	c7 44 24 0c 00 00 00 	movl   $0x0,0xc(%esp)
   310f2:	00 
   310f3:	c7 44 24 08 f0 07 03 	movl   $0x307f0,0x8(%esp)
   310fa:	00 
   310fb:	c7 44 24 04 8e 00 00 	movl   $0x8e,0x4(%esp)
   31102:	00 
   31103:	c7 04 24 2f 00 00 00 	movl   $0x2f,(%esp)
   3110a:	e8 2b 01 00 00       	call   3123a <init_idt_desc>
   3110f:	c7 44 24 0c 03 00 00 	movl   $0x3,0xc(%esp)
   31116:	00 
   31117:	c7 44 24 08 b0 08 03 	movl   $0x308b0,0x8(%esp)
   3111e:	00 
   3111f:	c7 44 24 04 8e 00 00 	movl   $0x8e,0x4(%esp)
   31126:	00 
   31127:	c7 04 24 90 00 00 00 	movl   $0x90,(%esp)
   3112e:	e8 07 01 00 00       	call   3123a <init_idt_desc>
   31133:	c7 44 24 0c 03 00 00 	movl   $0x3,0xc(%esp)
   3113a:	00 
   3113b:	c7 44 24 08 a5 08 03 	movl   $0x308a5,0x8(%esp)
   31142:	00 
   31143:	c7 44 24 04 8e 00 00 	movl   $0x8e,0x4(%esp)
   3114a:	00 
   3114b:	c7 04 24 80 00 00 00 	movl   $0x80,(%esp)
   31152:	e8 e3 00 00 00       	call   3123a <init_idt_desc>
   31157:	c7 44 24 08 68 00 00 	movl   $0x68,0x8(%esp)
   3115e:	00 
   3115f:	c7 44 24 04 00 00 00 	movl   $0x0,0x4(%esp)
   31166:	00 
   31167:	c7 04 24 00 70 06 00 	movl   $0x67000,(%esp)
   3116e:	e8 ec f8 ff ff       	call   30a5f <memset>
   31173:	c7 05 08 70 06 00 10 	movl   $0x10,0x67008
   3117a:	00 00 00 
   3117d:	c7 04 24 10 00 00 00 	movl   $0x10,(%esp)
   31184:	e8 21 01 00 00       	call   312aa <seg2phys>
   31189:	ba 00 70 06 00       	mov    $0x67000,%edx
   3118e:	01 d0                	add    %edx,%eax
   31190:	c7 44 24 0c 89 00 00 	movl   $0x89,0xc(%esp)
   31197:	00 
   31198:	c7 44 24 08 67 00 00 	movl   $0x67,0x8(%esp)
   3119f:	00 
   311a0:	89 44 24 04          	mov    %eax,0x4(%esp)
   311a4:	c7 04 24 c0 5f 06 00 	movl   $0x65fc0,(%esp)
   311ab:	e8 49 01 00 00       	call   312f9 <init_descriptor>
   311b0:	66 c7 05 66 70 06 00 	movw   $0x68,0x67066
   311b7:	68 00 
   311b9:	c7 45 f0 60 79 06 00 	movl   $0x67960,-0x10(%ebp)
   311c0:	66 c7 45 f6 28 00    	movw   $0x28,-0xa(%ebp)
   311c6:	c7 45 ec 00 00 00 00 	movl   $0x0,-0x14(%ebp)
   311cd:	eb 63                	jmp    31232 <init_prot+0x5ae>
   311cf:	c7 04 24 10 00 00 00 	movl   $0x10,(%esp)
   311d6:	e8 cf 00 00 00       	call   312aa <seg2phys>
   311db:	8b 55 ec             	mov    -0x14(%ebp),%edx
   311de:	69 d2 a4 00 00 00    	imul   $0xa4,%edx,%edx
   311e4:	83 c2 40             	add    $0x40,%edx
   311e7:	81 c2 60 79 06 00    	add    $0x67960,%edx
   311ed:	83 c2 0a             	add    $0xa,%edx
   311f0:	8d 14 10             	lea    (%eax,%edx,1),%edx
   311f3:	0f b7 45 f6          	movzwl -0xa(%ebp),%eax
   311f7:	66 c1 e8 03          	shr    $0x3,%ax
   311fb:	0f b7 c0             	movzwl %ax,%eax
   311fe:	c1 e0 03             	shl    $0x3,%eax
   31201:	05 a0 5f 06 00       	add    $0x65fa0,%eax
   31206:	c7 44 24 0c 82 00 00 	movl   $0x82,0xc(%esp)
   3120d:	00 
   3120e:	c7 44 24 08 0f 00 00 	movl   $0xf,0x8(%esp)
   31215:	00 
   31216:	89 54 24 04          	mov    %edx,0x4(%esp)
   3121a:	89 04 24             	mov    %eax,(%esp)
   3121d:	e8 d7 00 00 00       	call   312f9 <init_descriptor>
   31222:	81 45 f0 a4 00 00 00 	addl   $0xa4,-0x10(%ebp)
   31229:	66 83 45 f6 08       	addw   $0x8,-0xa(%ebp)
   3122e:	83 45 ec 01          	addl   $0x1,-0x14(%ebp)
   31232:	83 7d ec 07          	cmpl   $0x7,-0x14(%ebp)
   31236:	7e 97                	jle    311cf <init_prot+0x54b>
   31238:	c9                   	leave  
   31239:	c3                   	ret    

0003123a <init_idt_desc>:
   3123a:	55                   	push   %ebp
   3123b:	89 e5                	mov    %esp,%ebp
   3123d:	83 ec 1c             	sub    $0x1c,%esp
   31240:	8b 4d 08             	mov    0x8(%ebp),%ecx
   31243:	8b 55 0c             	mov    0xc(%ebp),%edx
   31246:	8b 45 14             	mov    0x14(%ebp),%eax
   31249:	88 4d ec             	mov    %cl,-0x14(%ebp)
   3124c:	88 55 e8             	mov    %dl,-0x18(%ebp)
   3124f:	88 45 e4             	mov    %al,-0x1c(%ebp)
   31252:	0f b6 45 ec          	movzbl -0x14(%ebp),%eax
   31256:	c1 e0 03             	shl    $0x3,%eax
   31259:	05 a0 70 06 00       	add    $0x670a0,%eax
   3125e:	89 45 f8             	mov    %eax,-0x8(%ebp)
   31261:	8b 45 10             	mov    0x10(%ebp),%eax
   31264:	89 45 fc             	mov    %eax,-0x4(%ebp)
   31267:	8b 45 fc             	mov    -0x4(%ebp),%eax
   3126a:	89 c2                	mov    %eax,%edx
   3126c:	8b 45 f8             	mov    -0x8(%ebp),%eax
   3126f:	66 89 10             	mov    %dx,(%eax)
   31272:	8b 45 f8             	mov    -0x8(%ebp),%eax
   31275:	66 c7 40 02 08 00    	movw   $0x8,0x2(%eax)
   3127b:	8b 45 f8             	mov    -0x8(%ebp),%eax
   3127e:	c6 40 04 00          	movb   $0x0,0x4(%eax)
   31282:	0f b6 45 e4          	movzbl -0x1c(%ebp),%eax
   31286:	c1 e0 05             	shl    $0x5,%eax
   31289:	89 c2                	mov    %eax,%edx
   3128b:	0f b6 45 e8          	movzbl -0x18(%ebp),%eax
   3128f:	09 d0                	or     %edx,%eax
   31291:	89 c2                	mov    %eax,%edx
   31293:	8b 45 f8             	mov    -0x8(%ebp),%eax
   31296:	88 50 05             	mov    %dl,0x5(%eax)
   31299:	8b 45 fc             	mov    -0x4(%ebp),%eax
   3129c:	c1 e8 10             	shr    $0x10,%eax
   3129f:	89 c2                	mov    %eax,%edx
   312a1:	8b 45 f8             	mov    -0x8(%ebp),%eax
   312a4:	66 89 50 06          	mov    %dx,0x6(%eax)
   312a8:	c9                   	leave  
   312a9:	c3                   	ret    

000312aa <seg2phys>:
   312aa:	55                   	push   %ebp
   312ab:	89 e5                	mov    %esp,%ebp
   312ad:	83 ec 14             	sub    $0x14,%esp
   312b0:	8b 45 08             	mov    0x8(%ebp),%eax
   312b3:	66 89 45 ec          	mov    %ax,-0x14(%ebp)
   312b7:	0f b7 45 ec          	movzwl -0x14(%ebp),%eax
   312bb:	66 c1 e8 03          	shr    $0x3,%ax
   312bf:	0f b7 c0             	movzwl %ax,%eax
   312c2:	c1 e0 03             	shl    $0x3,%eax
   312c5:	05 a0 5f 06 00       	add    $0x65fa0,%eax
   312ca:	89 45 fc             	mov    %eax,-0x4(%ebp)
   312cd:	8b 45 fc             	mov    -0x4(%ebp),%eax
   312d0:	0f b6 40 07          	movzbl 0x7(%eax),%eax
   312d4:	0f b6 c0             	movzbl %al,%eax
   312d7:	89 c2                	mov    %eax,%edx
   312d9:	c1 e2 18             	shl    $0x18,%edx
   312dc:	8b 45 fc             	mov    -0x4(%ebp),%eax
   312df:	0f b6 40 04          	movzbl 0x4(%eax),%eax
   312e3:	0f b6 c0             	movzbl %al,%eax
   312e6:	c1 e0 10             	shl    $0x10,%eax
   312e9:	09 c2                	or     %eax,%edx
   312eb:	8b 45 fc             	mov    -0x4(%ebp),%eax
   312ee:	0f b7 40 02          	movzwl 0x2(%eax),%eax
   312f2:	0f b7 c0             	movzwl %ax,%eax
   312f5:	09 d0                	or     %edx,%eax
   312f7:	c9                   	leave  
   312f8:	c3                   	ret    

000312f9 <init_descriptor>:
   312f9:	55                   	push   %ebp
   312fa:	89 e5                	mov    %esp,%ebp
   312fc:	83 ec 04             	sub    $0x4,%esp
   312ff:	8b 45 14             	mov    0x14(%ebp),%eax
   31302:	66 89 45 fc          	mov    %ax,-0x4(%ebp)
   31306:	8b 45 10             	mov    0x10(%ebp),%eax
   31309:	89 c2                	mov    %eax,%edx
   3130b:	8b 45 08             	mov    0x8(%ebp),%eax
   3130e:	66 89 10             	mov    %dx,(%eax)
   31311:	8b 45 0c             	mov    0xc(%ebp),%eax
   31314:	89 c2                	mov    %eax,%edx
   31316:	8b 45 08             	mov    0x8(%ebp),%eax
   31319:	66 89 50 02          	mov    %dx,0x2(%eax)
   3131d:	8b 45 0c             	mov    0xc(%ebp),%eax
   31320:	c1 e8 10             	shr    $0x10,%eax
   31323:	89 c2                	mov    %eax,%edx
   31325:	8b 45 08             	mov    0x8(%ebp),%eax
   31328:	88 50 04             	mov    %dl,0x4(%eax)
   3132b:	0f b7 45 fc          	movzwl -0x4(%ebp),%eax
   3132f:	89 c2                	mov    %eax,%edx
   31331:	8b 45 08             	mov    0x8(%ebp),%eax
   31334:	88 50 05             	mov    %dl,0x5(%eax)
   31337:	8b 45 10             	mov    0x10(%ebp),%eax
   3133a:	c1 e8 10             	shr    $0x10,%eax
   3133d:	89 c2                	mov    %eax,%edx
   3133f:	83 e2 0f             	and    $0xf,%edx
   31342:	0f b7 45 fc          	movzwl -0x4(%ebp),%eax
   31346:	66 c1 e8 08          	shr    $0x8,%ax
   3134a:	83 e0 f0             	and    $0xfffffff0,%eax
   3134d:	09 c2                	or     %eax,%edx
   3134f:	8b 45 08             	mov    0x8(%ebp),%eax
   31352:	88 50 06             	mov    %dl,0x6(%eax)
   31355:	8b 45 0c             	mov    0xc(%ebp),%eax
   31358:	c1 e8 18             	shr    $0x18,%eax
   3135b:	89 c2                	mov    %eax,%edx
   3135d:	8b 45 08             	mov    0x8(%ebp),%eax
   31360:	88 50 07             	mov    %dl,0x7(%eax)
   31363:	c9                   	leave  
   31364:	c3                   	ret    

00031365 <exception_handler>:
   31365:	55                   	push   %ebp
   31366:	89 e5                	mov    %esp,%ebp
   31368:	57                   	push   %edi
   31369:	56                   	push   %esi
   3136a:	53                   	push   %ebx
   3136b:	83 ec 7c             	sub    $0x7c,%esp
   3136e:	c7 45 e4 74 00 00 00 	movl   $0x74,-0x1c(%ebp)
   31375:	8d 55 90             	lea    -0x70(%ebp),%edx
   31378:	bb 80 5c 03 00       	mov    $0x35c80,%ebx
   3137d:	b8 14 00 00 00       	mov    $0x14,%eax
   31382:	89 d7                	mov    %edx,%edi
   31384:	89 de                	mov    %ebx,%esi
   31386:	89 c1                	mov    %eax,%ecx
   31388:	f3 a5                	rep movsl %ds:(%esi),%es:(%edi)
   3138a:	c7 05 74 70 06 00 00 	movl   $0x0,0x67074
   31391:	00 00 00 
   31394:	c7 45 e0 00 00 00 00 	movl   $0x0,-0x20(%ebp)
   3139b:	eb 10                	jmp    313ad <exception_handler+0x48>
   3139d:	c7 04 24 40 5a 03 00 	movl   $0x35a40,(%esp)
   313a4:	e8 5c f5 ff ff       	call   30905 <disp_str>
   313a9:	83 45 e0 01          	addl   $0x1,-0x20(%ebp)
   313ad:	81 7d e0 8f 01 00 00 	cmpl   $0x18f,-0x20(%ebp)
   313b4:	7e e7                	jle    3139d <exception_handler+0x38>
   313b6:	c7 05 74 70 06 00 00 	movl   $0x0,0x67074
   313bd:	00 00 00 
   313c0:	8b 45 e4             	mov    -0x1c(%ebp),%eax
   313c3:	89 44 24 04          	mov    %eax,0x4(%esp)
   313c7:	c7 04 24 42 5a 03 00 	movl   $0x35a42,(%esp)
   313ce:	e8 79 f5 ff ff       	call   3094c <disp_color_str>
   313d3:	8b 45 08             	mov    0x8(%ebp),%eax
   313d6:	8b 44 85 90          	mov    -0x70(%ebp,%eax,4),%eax
   313da:	8b 55 e4             	mov    -0x1c(%ebp),%edx
   313dd:	89 54 24 04          	mov    %edx,0x4(%esp)
   313e1:	89 04 24             	mov    %eax,(%esp)
   313e4:	e8 63 f5 ff ff       	call   3094c <disp_color_str>
   313e9:	8b 45 e4             	mov    -0x1c(%ebp),%eax
   313ec:	89 44 24 04          	mov    %eax,0x4(%esp)
   313f0:	c7 04 24 52 5a 03 00 	movl   $0x35a52,(%esp)
   313f7:	e8 50 f5 ff ff       	call   3094c <disp_color_str>
   313fc:	8b 45 e4             	mov    -0x1c(%ebp),%eax
   313ff:	89 44 24 04          	mov    %eax,0x4(%esp)
   31403:	c7 04 24 55 5a 03 00 	movl   $0x35a55,(%esp)
   3140a:	e8 3d f5 ff ff       	call   3094c <disp_color_str>
   3140f:	8b 45 18             	mov    0x18(%ebp),%eax
   31412:	89 04 24             	mov    %eax,(%esp)
   31415:	e8 98 07 00 00       	call   31bb2 <disp_int>
   3141a:	8b 45 e4             	mov    -0x1c(%ebp),%eax
   3141d:	89 44 24 04          	mov    %eax,0x4(%esp)
   31421:	c7 04 24 5d 5a 03 00 	movl   $0x35a5d,(%esp)
   31428:	e8 1f f5 ff ff       	call   3094c <disp_color_str>
   3142d:	8b 45 14             	mov    0x14(%ebp),%eax
   31430:	89 04 24             	mov    %eax,(%esp)
   31433:	e8 7a 07 00 00       	call   31bb2 <disp_int>
   31438:	8b 45 e4             	mov    -0x1c(%ebp),%eax
   3143b:	89 44 24 04          	mov    %eax,0x4(%esp)
   3143f:	c7 04 24 61 5a 03 00 	movl   $0x35a61,(%esp)
   31446:	e8 01 f5 ff ff       	call   3094c <disp_color_str>
   3144b:	8b 45 10             	mov    0x10(%ebp),%eax
   3144e:	89 04 24             	mov    %eax,(%esp)
   31451:	e8 5c 07 00 00       	call   31bb2 <disp_int>
   31456:	83 7d 0c ff          	cmpl   $0xffffffff,0xc(%ebp)
   3145a:	74 1e                	je     3147a <exception_handler+0x115>
   3145c:	8b 45 e4             	mov    -0x1c(%ebp),%eax
   3145f:	89 44 24 04          	mov    %eax,0x4(%esp)
   31463:	c7 04 24 66 5a 03 00 	movl   $0x35a66,(%esp)
   3146a:	e8 dd f4 ff ff       	call   3094c <disp_color_str>
   3146f:	8b 45 0c             	mov    0xc(%ebp),%eax
   31472:	89 04 24             	mov    %eax,(%esp)
   31475:	e8 38 07 00 00       	call   31bb2 <disp_int>
   3147a:	83 c4 7c             	add    $0x7c,%esp
   3147d:	5b                   	pop    %ebx
   3147e:	5e                   	pop    %esi
   3147f:	5f                   	pop    %edi
   31480:	5d                   	pop    %ebp
   31481:	c3                   	ret    
   31482:	90                   	nop
   31483:	90                   	nop

00031484 <keyboard_handler>:
   31484:	55                   	push   %ebp
   31485:	89 e5                	mov    %esp,%ebp
   31487:	83 ec 28             	sub    $0x28,%esp
   3148a:	c7 04 24 60 00 00 00 	movl   $0x60,(%esp)
   31491:	e8 0a f5 ff ff       	call   309a0 <in_byte>
   31496:	88 45 f7             	mov    %al,-0x9(%ebp)
   31499:	a1 a8 97 03 00       	mov    0x397a8,%eax
   3149e:	83 f8 1f             	cmp    $0x1f,%eax
   314a1:	7f 3e                	jg     314e1 <keyboard_handler+0x5d>
   314a3:	a1 a0 97 03 00       	mov    0x397a0,%eax
   314a8:	0f b6 55 f7          	movzbl -0x9(%ebp),%edx
   314ac:	88 10                	mov    %dl,(%eax)
   314ae:	a1 a0 97 03 00       	mov    0x397a0,%eax
   314b3:	83 c0 01             	add    $0x1,%eax
   314b6:	a3 a0 97 03 00       	mov    %eax,0x397a0
   314bb:	8b 15 a0 97 03 00    	mov    0x397a0,%edx
   314c1:	b8 cc 97 03 00       	mov    $0x397cc,%eax
   314c6:	39 c2                	cmp    %eax,%edx
   314c8:	75 0a                	jne    314d4 <keyboard_handler+0x50>
   314ca:	c7 05 a0 97 03 00 ac 	movl   $0x397ac,0x397a0
   314d1:	97 03 00 
   314d4:	a1 a8 97 03 00       	mov    0x397a8,%eax
   314d9:	83 c0 01             	add    $0x1,%eax
   314dc:	a3 a8 97 03 00       	mov    %eax,0x397a8
   314e1:	c7 44 24 04 01 00 00 	movl   $0x1,0x4(%esp)
   314e8:	00 
   314e9:	c7 04 24 f6 ff ff ff 	movl   $0xfffffff6,(%esp)
   314f0:	e8 e2 29 00 00       	call   33ed7 <lock_notify>
   314f5:	c9                   	leave  
   314f6:	c3                   	ret    

000314f7 <init_keyboard>:
   314f7:	55                   	push   %ebp
   314f8:	89 e5                	mov    %esp,%ebp
   314fa:	83 ec 18             	sub    $0x18,%esp
   314fd:	c7 05 a8 97 03 00 00 	movl   $0x0,0x397a8
   31504:	00 00 00 
   31507:	c7 05 a4 97 03 00 ac 	movl   $0x397ac,0x397a4
   3150e:	97 03 00 
   31511:	a1 a4 97 03 00       	mov    0x397a4,%eax
   31516:	a3 a0 97 03 00       	mov    %eax,0x397a0
   3151b:	c7 05 d4 97 03 00 00 	movl   $0x0,0x397d4
   31522:	00 00 00 
   31525:	a1 d4 97 03 00       	mov    0x397d4,%eax
   3152a:	a3 d0 97 03 00       	mov    %eax,0x397d0
   3152f:	c7 05 dc 97 03 00 00 	movl   $0x0,0x397dc
   31536:	00 00 00 
   31539:	a1 dc 97 03 00       	mov    0x397dc,%eax
   3153e:	a3 d8 97 03 00       	mov    %eax,0x397d8
   31543:	c7 05 e4 97 03 00 00 	movl   $0x0,0x397e4
   3154a:	00 00 00 
   3154d:	a1 e4 97 03 00       	mov    0x397e4,%eax
   31552:	a3 e0 97 03 00       	mov    %eax,0x397e0
   31557:	c7 05 e8 97 03 00 00 	movl   $0x0,0x397e8
   3155e:	00 00 00 
   31561:	c7 05 ec 97 03 00 01 	movl   $0x1,0x397ec
   31568:	00 00 00 
   3156b:	c7 05 f0 97 03 00 00 	movl   $0x0,0x397f0
   31572:	00 00 00 
   31575:	e8 2b 05 00 00       	call   31aa5 <set_leds>
   3157a:	c7 44 24 04 84 14 03 	movl   $0x31484,0x4(%esp)
   31581:	00 
   31582:	c7 04 24 01 00 00 00 	movl   $0x1,(%esp)
   31589:	e8 d6 f6 ff ff       	call   30c64 <put_irq_handler>
   3158e:	c7 04 24 01 00 00 00 	movl   $0x1,(%esp)
   31595:	e8 45 f4 ff ff       	call   309df <enable_irq>
   3159a:	c9                   	leave  
   3159b:	c3                   	ret    

0003159c <keyboard_read>:
   3159c:	55                   	push   %ebp
   3159d:	89 e5                	mov    %esp,%ebp
   3159f:	83 ec 48             	sub    $0x48,%esp
   315a2:	c7 45 e0 00 00 00 00 	movl   $0x0,-0x20(%ebp)
   315a9:	a1 a8 97 03 00       	mov    0x397a8,%eax
   315ae:	85 c0                	test   %eax,%eax
   315b0:	0f 8e 53 04 00 00    	jle    31a09 <keyboard_read+0x46d>
   315b6:	c7 05 cc 97 03 00 00 	movl   $0x0,0x397cc
   315bd:	00 00 00 
   315c0:	e8 46 04 00 00       	call   31a0b <get_byte_from_kbuf>
   315c5:	88 45 db             	mov    %al,-0x25(%ebp)
   315c8:	80 7d db e1          	cmpb   $0xe1,-0x25(%ebp)
   315cc:	75 5b                	jne    31629 <keyboard_read+0x8d>
   315ce:	c6 45 d3 e1          	movb   $0xe1,-0x2d(%ebp)
   315d2:	c6 45 d4 1d          	movb   $0x1d,-0x2c(%ebp)
   315d6:	c6 45 d5 45          	movb   $0x45,-0x2b(%ebp)
   315da:	c6 45 d6 e1          	movb   $0xe1,-0x2a(%ebp)
   315de:	c6 45 d7 9d          	movb   $0x9d,-0x29(%ebp)
   315e2:	c6 45 d8 c5          	movb   $0xc5,-0x28(%ebp)
   315e6:	c7 45 ec 01 00 00 00 	movl   $0x1,-0x14(%ebp)
   315ed:	c7 45 e8 01 00 00 00 	movl   $0x1,-0x18(%ebp)
   315f4:	eb 1e                	jmp    31614 <keyboard_read+0x78>
   315f6:	e8 10 04 00 00       	call   31a0b <get_byte_from_kbuf>
   315fb:	8b 55 e8             	mov    -0x18(%ebp),%edx
   315fe:	0f b6 54 15 d3       	movzbl -0x2d(%ebp,%edx,1),%edx
   31603:	38 d0                	cmp    %dl,%al
   31605:	74 09                	je     31610 <keyboard_read+0x74>
   31607:	c7 45 ec 00 00 00 00 	movl   $0x0,-0x14(%ebp)
   3160e:	eb 0a                	jmp    3161a <keyboard_read+0x7e>
   31610:	83 45 e8 01          	addl   $0x1,-0x18(%ebp)
   31614:	83 7d e8 05          	cmpl   $0x5,-0x18(%ebp)
   31618:	7e dc                	jle    315f6 <keyboard_read+0x5a>
   3161a:	83 7d ec 00          	cmpl   $0x0,-0x14(%ebp)
   3161e:	74 75                	je     31695 <keyboard_read+0xf9>
   31620:	c7 45 e0 1e 01 00 00 	movl   $0x11e,-0x20(%ebp)
   31627:	eb 6d                	jmp    31696 <keyboard_read+0xfa>
   31629:	80 7d db e0          	cmpb   $0xe0,-0x25(%ebp)
   3162d:	75 67                	jne    31696 <keyboard_read+0xfa>
   3162f:	e8 d7 03 00 00       	call   31a0b <get_byte_from_kbuf>
   31634:	88 45 db             	mov    %al,-0x25(%ebp)
   31637:	80 7d db 2a          	cmpb   $0x2a,-0x25(%ebp)
   3163b:	75 20                	jne    3165d <keyboard_read+0xc1>
   3163d:	e8 c9 03 00 00       	call   31a0b <get_byte_from_kbuf>
   31642:	3c e0                	cmp    $0xe0,%al
   31644:	75 17                	jne    3165d <keyboard_read+0xc1>
   31646:	e8 c0 03 00 00       	call   31a0b <get_byte_from_kbuf>
   3164b:	3c 37                	cmp    $0x37,%al
   3164d:	75 0e                	jne    3165d <keyboard_read+0xc1>
   3164f:	c7 45 e0 1d 01 00 00 	movl   $0x11d,-0x20(%ebp)
   31656:	c7 45 dc 01 00 00 00 	movl   $0x1,-0x24(%ebp)
   3165d:	80 7d db b7          	cmpb   $0xb7,-0x25(%ebp)
   31661:	75 20                	jne    31683 <keyboard_read+0xe7>
   31663:	e8 a3 03 00 00       	call   31a0b <get_byte_from_kbuf>
   31668:	3c e0                	cmp    $0xe0,%al
   3166a:	75 17                	jne    31683 <keyboard_read+0xe7>
   3166c:	e8 9a 03 00 00       	call   31a0b <get_byte_from_kbuf>
   31671:	3c aa                	cmp    $0xaa,%al
   31673:	75 0e                	jne    31683 <keyboard_read+0xe7>
   31675:	c7 45 e0 1d 01 00 00 	movl   $0x11d,-0x20(%ebp)
   3167c:	c7 45 dc 00 00 00 00 	movl   $0x0,-0x24(%ebp)
   31683:	83 7d e0 00          	cmpl   $0x0,-0x20(%ebp)
   31687:	75 0d                	jne    31696 <keyboard_read+0xfa>
   31689:	c7 05 cc 97 03 00 01 	movl   $0x1,0x397cc
   31690:	00 00 00 
   31693:	eb 01                	jmp    31696 <keyboard_read+0xfa>
   31695:	90                   	nop
   31696:	81 7d e0 1e 01 00 00 	cmpl   $0x11e,-0x20(%ebp)
   3169d:	0f 84 66 03 00 00    	je     31a09 <keyboard_read+0x46d>
   316a3:	81 7d e0 1d 01 00 00 	cmpl   $0x11d,-0x20(%ebp)
   316aa:	0f 84 59 03 00 00    	je     31a09 <keyboard_read+0x46d>
   316b0:	0f b6 45 db          	movzbl -0x25(%ebp),%eax
   316b4:	0f be c0             	movsbl %al,%eax
   316b7:	f7 d0                	not    %eax
   316b9:	c1 e8 1f             	shr    $0x1f,%eax
   316bc:	89 45 dc             	mov    %eax,-0x24(%ebp)
   316bf:	0f b6 45 db          	movzbl -0x25(%ebp),%eax
   316c3:	89 c2                	mov    %eax,%edx
   316c5:	83 e2 7f             	and    $0x7f,%edx
   316c8:	89 d0                	mov    %edx,%eax
   316ca:	01 c0                	add    %eax,%eax
   316cc:	01 d0                	add    %edx,%eax
   316ce:	c1 e0 02             	shl    $0x2,%eax
   316d1:	05 80 71 03 00       	add    $0x37180,%eax
   316d6:	89 45 e4             	mov    %eax,-0x1c(%ebp)
   316d9:	c7 05 f4 97 03 00 00 	movl   $0x0,0x397f4
   316e0:	00 00 00 
   316e3:	a1 d0 97 03 00       	mov    0x397d0,%eax
   316e8:	85 c0                	test   %eax,%eax
   316ea:	75 09                	jne    316f5 <keyboard_read+0x159>
   316ec:	a1 d4 97 03 00       	mov    0x397d4,%eax
   316f1:	85 c0                	test   %eax,%eax
   316f3:	74 07                	je     316fc <keyboard_read+0x160>
   316f5:	b8 01 00 00 00       	mov    $0x1,%eax
   316fa:	eb 05                	jmp    31701 <keyboard_read+0x165>
   316fc:	b8 00 00 00 00       	mov    $0x0,%eax
   31701:	89 45 f0             	mov    %eax,-0x10(%ebp)
   31704:	a1 e8 97 03 00       	mov    0x397e8,%eax
   31709:	85 c0                	test   %eax,%eax
   3170b:	74 21                	je     3172e <keyboard_read+0x192>
   3170d:	8b 45 e4             	mov    -0x1c(%ebp),%eax
   31710:	8b 00                	mov    (%eax),%eax
   31712:	83 f8 60             	cmp    $0x60,%eax
   31715:	76 17                	jbe    3172e <keyboard_read+0x192>
   31717:	8b 45 e4             	mov    -0x1c(%ebp),%eax
   3171a:	8b 00                	mov    (%eax),%eax
   3171c:	83 f8 7a             	cmp    $0x7a,%eax
   3171f:	77 0d                	ja     3172e <keyboard_read+0x192>
   31721:	83 7d f0 00          	cmpl   $0x0,-0x10(%ebp)
   31725:	0f 94 c0             	sete   %al
   31728:	0f b6 c0             	movzbl %al,%eax
   3172b:	89 45 f0             	mov    %eax,-0x10(%ebp)
   3172e:	83 7d f0 00          	cmpl   $0x0,-0x10(%ebp)
   31732:	74 0a                	je     3173e <keyboard_read+0x1a2>
   31734:	c7 05 f4 97 03 00 01 	movl   $0x1,0x397f4
   3173b:	00 00 00 
   3173e:	a1 cc 97 03 00       	mov    0x397cc,%eax
   31743:	85 c0                	test   %eax,%eax
   31745:	74 0a                	je     31751 <keyboard_read+0x1b5>
   31747:	c7 05 f4 97 03 00 02 	movl   $0x2,0x397f4
   3174e:	00 00 00 
   31751:	a1 f4 97 03 00       	mov    0x397f4,%eax
   31756:	c1 e0 02             	shl    $0x2,%eax
   31759:	03 45 e4             	add    -0x1c(%ebp),%eax
   3175c:	8b 00                	mov    (%eax),%eax
   3175e:	89 45 e0             	mov    %eax,-0x20(%ebp)
   31761:	8b 45 e0             	mov    -0x20(%ebp),%eax
   31764:	2d 08 01 00 00       	sub    $0x108,%eax
   31769:	83 f8 08             	cmp    $0x8,%eax
   3176c:	0f 87 ac 00 00 00    	ja     3181e <keyboard_read+0x282>
   31772:	8b 04 85 d0 5c 03 00 	mov    0x35cd0(,%eax,4),%eax
   31779:	ff e0                	jmp    *%eax
   3177b:	8b 45 dc             	mov    -0x24(%ebp),%eax
   3177e:	a3 d0 97 03 00       	mov    %eax,0x397d0
   31783:	e9 96 00 00 00       	jmp    3181e <keyboard_read+0x282>
   31788:	8b 45 dc             	mov    -0x24(%ebp),%eax
   3178b:	a3 d4 97 03 00       	mov    %eax,0x397d4
   31790:	e9 89 00 00 00       	jmp    3181e <keyboard_read+0x282>
   31795:	8b 45 dc             	mov    -0x24(%ebp),%eax
   31798:	a3 e0 97 03 00       	mov    %eax,0x397e0
   3179d:	eb 7f                	jmp    3181e <keyboard_read+0x282>
   3179f:	8b 45 dc             	mov    -0x24(%ebp),%eax
   317a2:	a3 e4 97 03 00       	mov    %eax,0x397e4
   317a7:	eb 75                	jmp    3181e <keyboard_read+0x282>
   317a9:	8b 45 dc             	mov    -0x24(%ebp),%eax
   317ac:	a3 d8 97 03 00       	mov    %eax,0x397d8
   317b1:	eb 6b                	jmp    3181e <keyboard_read+0x282>
   317b3:	8b 45 dc             	mov    -0x24(%ebp),%eax
   317b6:	a3 d8 97 03 00       	mov    %eax,0x397d8
   317bb:	eb 61                	jmp    3181e <keyboard_read+0x282>
   317bd:	83 7d dc 00          	cmpl   $0x0,-0x24(%ebp)
   317c1:	74 57                	je     3181a <keyboard_read+0x27e>
   317c3:	a1 e8 97 03 00       	mov    0x397e8,%eax
   317c8:	85 c0                	test   %eax,%eax
   317ca:	0f 94 c0             	sete   %al
   317cd:	0f b6 c0             	movzbl %al,%eax
   317d0:	a3 e8 97 03 00       	mov    %eax,0x397e8
   317d5:	e8 cb 02 00 00       	call   31aa5 <set_leds>
   317da:	eb 42                	jmp    3181e <keyboard_read+0x282>
   317dc:	83 7d dc 00          	cmpl   $0x0,-0x24(%ebp)
   317e0:	74 3b                	je     3181d <keyboard_read+0x281>
   317e2:	a1 ec 97 03 00       	mov    0x397ec,%eax
   317e7:	85 c0                	test   %eax,%eax
   317e9:	0f 94 c0             	sete   %al
   317ec:	0f b6 c0             	movzbl %al,%eax
   317ef:	a3 ec 97 03 00       	mov    %eax,0x397ec
   317f4:	e8 ac 02 00 00       	call   31aa5 <set_leds>
   317f9:	eb 23                	jmp    3181e <keyboard_read+0x282>
   317fb:	83 7d dc 00          	cmpl   $0x0,-0x24(%ebp)
   317ff:	74 1d                	je     3181e <keyboard_read+0x282>
   31801:	a1 f0 97 03 00       	mov    0x397f0,%eax
   31806:	85 c0                	test   %eax,%eax
   31808:	0f 94 c0             	sete   %al
   3180b:	0f b6 c0             	movzbl %al,%eax
   3180e:	a3 f0 97 03 00       	mov    %eax,0x397f0
   31813:	e8 8d 02 00 00       	call   31aa5 <set_leds>
   31818:	eb 04                	jmp    3181e <keyboard_read+0x282>
   3181a:	90                   	nop
   3181b:	eb 01                	jmp    3181e <keyboard_read+0x282>
   3181d:	90                   	nop
   3181e:	83 7d dc 00          	cmpl   $0x0,-0x24(%ebp)
   31822:	0f 84 e1 01 00 00    	je     31a09 <keyboard_read+0x46d>
   31828:	c7 45 f4 00 00 00 00 	movl   $0x0,-0xc(%ebp)
   3182f:	81 7d e0 2b 01 00 00 	cmpl   $0x12b,-0x20(%ebp)
   31836:	0f 86 16 01 00 00    	jbe    31952 <keyboard_read+0x3b6>
   3183c:	81 7d e0 3b 01 00 00 	cmpl   $0x13b,-0x20(%ebp)
   31843:	0f 87 09 01 00 00    	ja     31952 <keyboard_read+0x3b6>
   31849:	c7 45 f4 01 00 00 00 	movl   $0x1,-0xc(%ebp)
   31850:	8b 45 e0             	mov    -0x20(%ebp),%eax
   31853:	2d 2c 01 00 00       	sub    $0x12c,%eax
   31858:	83 f8 04             	cmp    $0x4,%eax
   3185b:	77 45                	ja     318a2 <keyboard_read+0x306>
   3185d:	8b 04 85 f4 5c 03 00 	mov    0x35cf4(,%eax,4),%eax
   31864:	ff e0                	jmp    *%eax
   31866:	c7 45 e0 2f 00 00 00 	movl   $0x2f,-0x20(%ebp)
   3186d:	e9 e0 00 00 00       	jmp    31952 <keyboard_read+0x3b6>
   31872:	c7 45 e0 2a 00 00 00 	movl   $0x2a,-0x20(%ebp)
   31879:	e9 d4 00 00 00       	jmp    31952 <keyboard_read+0x3b6>
   3187e:	c7 45 e0 2d 00 00 00 	movl   $0x2d,-0x20(%ebp)
   31885:	e9 c8 00 00 00       	jmp    31952 <keyboard_read+0x3b6>
   3188a:	c7 45 e0 2b 00 00 00 	movl   $0x2b,-0x20(%ebp)
   31891:	e9 bc 00 00 00       	jmp    31952 <keyboard_read+0x3b6>
   31896:	c7 45 e0 03 01 00 00 	movl   $0x103,-0x20(%ebp)
   3189d:	e9 b0 00 00 00       	jmp    31952 <keyboard_read+0x3b6>
   318a2:	a1 ec 97 03 00       	mov    0x397ec,%eax
   318a7:	85 c0                	test   %eax,%eax
   318a9:	74 1e                	je     318c9 <keyboard_read+0x32d>
   318ab:	81 7d e0 31 01 00 00 	cmpl   $0x131,-0x20(%ebp)
   318b2:	76 15                	jbe    318c9 <keyboard_read+0x32d>
   318b4:	81 7d e0 3b 01 00 00 	cmpl   $0x13b,-0x20(%ebp)
   318bb:	77 0c                	ja     318c9 <keyboard_read+0x32d>
   318bd:	81 6d e0 02 01 00 00 	subl   $0x102,-0x20(%ebp)
   318c4:	e9 89 00 00 00       	jmp    31952 <keyboard_read+0x3b6>
   318c9:	a1 ec 97 03 00       	mov    0x397ec,%eax
   318ce:	85 c0                	test   %eax,%eax
   318d0:	74 12                	je     318e4 <keyboard_read+0x348>
   318d2:	81 7d e0 31 01 00 00 	cmpl   $0x131,-0x20(%ebp)
   318d9:	75 09                	jne    318e4 <keyboard_read+0x348>
   318db:	c7 45 e0 2e 00 00 00 	movl   $0x2e,-0x20(%ebp)
   318e2:	eb 6e                	jmp    31952 <keyboard_read+0x3b6>
   318e4:	8b 45 e0             	mov    -0x20(%ebp),%eax
   318e7:	2d 31 01 00 00       	sub    $0x131,%eax
   318ec:	83 f8 0a             	cmp    $0xa,%eax
   318ef:	77 61                	ja     31952 <keyboard_read+0x3b6>
   318f1:	8b 04 85 08 5d 03 00 	mov    0x35d08(,%eax,4),%eax
   318f8:	ff e0                	jmp    *%eax
   318fa:	c7 45 e0 21 01 00 00 	movl   $0x121,-0x20(%ebp)
   31901:	eb 4f                	jmp    31952 <keyboard_read+0x3b6>
   31903:	c7 45 e0 22 01 00 00 	movl   $0x122,-0x20(%ebp)
   3190a:	eb 46                	jmp    31952 <keyboard_read+0x3b6>
   3190c:	c7 45 e0 23 01 00 00 	movl   $0x123,-0x20(%ebp)
   31913:	eb 3d                	jmp    31952 <keyboard_read+0x3b6>
   31915:	c7 45 e0 24 01 00 00 	movl   $0x124,-0x20(%ebp)
   3191c:	eb 34                	jmp    31952 <keyboard_read+0x3b6>
   3191e:	c7 45 e0 1f 01 00 00 	movl   $0x11f,-0x20(%ebp)
   31925:	eb 2b                	jmp    31952 <keyboard_read+0x3b6>
   31927:	c7 45 e0 25 01 00 00 	movl   $0x125,-0x20(%ebp)
   3192e:	eb 22                	jmp    31952 <keyboard_read+0x3b6>
   31930:	c7 45 e0 26 01 00 00 	movl   $0x126,-0x20(%ebp)
   31937:	eb 19                	jmp    31952 <keyboard_read+0x3b6>
   31939:	c7 45 e0 27 01 00 00 	movl   $0x127,-0x20(%ebp)
   31940:	eb 10                	jmp    31952 <keyboard_read+0x3b6>
   31942:	c7 45 e0 28 01 00 00 	movl   $0x128,-0x20(%ebp)
   31949:	eb 07                	jmp    31952 <keyboard_read+0x3b6>
   3194b:	c7 45 e0 20 01 00 00 	movl   $0x120,-0x20(%ebp)
   31952:	a1 d0 97 03 00       	mov    0x397d0,%eax
   31957:	85 c0                	test   %eax,%eax
   31959:	74 07                	je     31962 <keyboard_read+0x3c6>
   3195b:	b8 00 02 00 00       	mov    $0x200,%eax
   31960:	eb 05                	jmp    31967 <keyboard_read+0x3cb>
   31962:	b8 00 00 00 00       	mov    $0x0,%eax
   31967:	09 45 e0             	or     %eax,-0x20(%ebp)
   3196a:	a1 d4 97 03 00       	mov    0x397d4,%eax
   3196f:	85 c0                	test   %eax,%eax
   31971:	74 07                	je     3197a <keyboard_read+0x3de>
   31973:	b8 00 04 00 00       	mov    $0x400,%eax
   31978:	eb 05                	jmp    3197f <keyboard_read+0x3e3>
   3197a:	b8 00 00 00 00       	mov    $0x0,%eax
   3197f:	09 45 e0             	or     %eax,-0x20(%ebp)
   31982:	a1 e0 97 03 00       	mov    0x397e0,%eax
   31987:	85 c0                	test   %eax,%eax
   31989:	74 07                	je     31992 <keyboard_read+0x3f6>
   3198b:	b8 00 08 00 00       	mov    $0x800,%eax
   31990:	eb 05                	jmp    31997 <keyboard_read+0x3fb>
   31992:	b8 00 00 00 00       	mov    $0x0,%eax
   31997:	09 45 e0             	or     %eax,-0x20(%ebp)
   3199a:	a1 e4 97 03 00       	mov    0x397e4,%eax
   3199f:	85 c0                	test   %eax,%eax
   319a1:	74 07                	je     319aa <keyboard_read+0x40e>
   319a3:	b8 00 10 00 00       	mov    $0x1000,%eax
   319a8:	eb 05                	jmp    319af <keyboard_read+0x413>
   319aa:	b8 00 00 00 00       	mov    $0x0,%eax
   319af:	09 45 e0             	or     %eax,-0x20(%ebp)
   319b2:	a1 d8 97 03 00       	mov    0x397d8,%eax
   319b7:	85 c0                	test   %eax,%eax
   319b9:	74 07                	je     319c2 <keyboard_read+0x426>
   319bb:	b8 00 20 00 00       	mov    $0x2000,%eax
   319c0:	eb 05                	jmp    319c7 <keyboard_read+0x42b>
   319c2:	b8 00 00 00 00       	mov    $0x0,%eax
   319c7:	09 45 e0             	or     %eax,-0x20(%ebp)
   319ca:	a1 dc 97 03 00       	mov    0x397dc,%eax
   319cf:	85 c0                	test   %eax,%eax
   319d1:	74 07                	je     319da <keyboard_read+0x43e>
   319d3:	b8 00 40 00 00       	mov    $0x4000,%eax
   319d8:	eb 05                	jmp    319df <keyboard_read+0x443>
   319da:	b8 00 00 00 00       	mov    $0x0,%eax
   319df:	09 45 e0             	or     %eax,-0x20(%ebp)
   319e2:	83 7d f4 00          	cmpl   $0x0,-0xc(%ebp)
   319e6:	74 07                	je     319ef <keyboard_read+0x453>
   319e8:	b8 00 80 00 00       	mov    $0x8000,%eax
   319ed:	eb 05                	jmp    319f4 <keyboard_read+0x458>
   319ef:	b8 00 00 00 00       	mov    $0x0,%eax
   319f4:	09 45 e0             	or     %eax,-0x20(%ebp)
   319f7:	8b 45 e0             	mov    -0x20(%ebp),%eax
   319fa:	89 44 24 04          	mov    %eax,0x4(%esp)
   319fe:	8b 45 08             	mov    0x8(%ebp),%eax
   31a01:	89 04 24             	mov    %eax,(%esp)
   31a04:	e8 2e 27 00 00       	call   34137 <in_process>
   31a09:	c9                   	leave  
   31a0a:	c3                   	ret    

00031a0b <get_byte_from_kbuf>:
   31a0b:	55                   	push   %ebp
   31a0c:	89 e5                	mov    %esp,%ebp
   31a0e:	83 ec 18             	sub    $0x18,%esp
   31a11:	a1 a8 97 03 00       	mov    0x397a8,%eax
   31a16:	85 c0                	test   %eax,%eax
   31a18:	7e f7                	jle    31a11 <get_byte_from_kbuf+0x6>
   31a1a:	e8 df ef ff ff       	call   309fe <disable_int>
   31a1f:	a1 a4 97 03 00       	mov    0x397a4,%eax
   31a24:	0f b6 00             	movzbl (%eax),%eax
   31a27:	88 45 f7             	mov    %al,-0x9(%ebp)
   31a2a:	a1 a4 97 03 00       	mov    0x397a4,%eax
   31a2f:	83 c0 01             	add    $0x1,%eax
   31a32:	a3 a4 97 03 00       	mov    %eax,0x397a4
   31a37:	8b 15 a4 97 03 00    	mov    0x397a4,%edx
   31a3d:	b8 cc 97 03 00       	mov    $0x397cc,%eax
   31a42:	39 c2                	cmp    %eax,%edx
   31a44:	75 0a                	jne    31a50 <get_byte_from_kbuf+0x45>
   31a46:	c7 05 a4 97 03 00 ac 	movl   $0x397ac,0x397a4
   31a4d:	97 03 00 
   31a50:	a1 a8 97 03 00       	mov    0x397a8,%eax
   31a55:	83 e8 01             	sub    $0x1,%eax
   31a58:	a3 a8 97 03 00       	mov    %eax,0x397a8
   31a5d:	e8 9e ef ff ff       	call   30a00 <enable_int>
   31a62:	0f b6 45 f7          	movzbl -0x9(%ebp),%eax
   31a66:	c9                   	leave  
   31a67:	c3                   	ret    

00031a68 <kb_wait>:
   31a68:	55                   	push   %ebp
   31a69:	89 e5                	mov    %esp,%ebp
   31a6b:	83 ec 28             	sub    $0x28,%esp
   31a6e:	c7 04 24 64 00 00 00 	movl   $0x64,(%esp)
   31a75:	e8 26 ef ff ff       	call   309a0 <in_byte>
   31a7a:	88 45 f7             	mov    %al,-0x9(%ebp)
   31a7d:	0f b6 45 f7          	movzbl -0x9(%ebp),%eax
   31a81:	83 e0 02             	and    $0x2,%eax
   31a84:	85 c0                	test   %eax,%eax
   31a86:	75 e6                	jne    31a6e <kb_wait+0x6>
   31a88:	c9                   	leave  
   31a89:	c3                   	ret    

00031a8a <kb_ack>:
   31a8a:	55                   	push   %ebp
   31a8b:	89 e5                	mov    %esp,%ebp
   31a8d:	83 ec 28             	sub    $0x28,%esp
   31a90:	c7 04 24 60 00 00 00 	movl   $0x60,(%esp)
   31a97:	e8 04 ef ff ff       	call   309a0 <in_byte>
   31a9c:	88 45 f7             	mov    %al,-0x9(%ebp)
   31a9f:	c6 45 f7 00          	movb   $0x0,-0x9(%ebp)
   31aa3:	c9                   	leave  
   31aa4:	c3                   	ret    

00031aa5 <set_leds>:
   31aa5:	55                   	push   %ebp
   31aa6:	89 e5                	mov    %esp,%ebp
   31aa8:	83 ec 28             	sub    $0x28,%esp
   31aab:	a1 e8 97 03 00       	mov    0x397e8,%eax
   31ab0:	c1 e0 02             	shl    $0x2,%eax
   31ab3:	89 c2                	mov    %eax,%edx
   31ab5:	a1 ec 97 03 00       	mov    0x397ec,%eax
   31aba:	01 c0                	add    %eax,%eax
   31abc:	09 c2                	or     %eax,%edx
   31abe:	a1 f0 97 03 00       	mov    0x397f0,%eax
   31ac3:	09 d0                	or     %edx,%eax
   31ac5:	88 45 f7             	mov    %al,-0x9(%ebp)
   31ac8:	e8 9b ff ff ff       	call   31a68 <kb_wait>
   31acd:	c7 44 24 04 ed 00 00 	movl   $0xed,0x4(%esp)
   31ad4:	00 
   31ad5:	c7 04 24 60 00 00 00 	movl   $0x60,(%esp)
   31adc:	e8 b3 ee ff ff       	call   30994 <out_byte>
   31ae1:	e8 a4 ff ff ff       	call   31a8a <kb_ack>
   31ae6:	e8 7d ff ff ff       	call   31a68 <kb_wait>
   31aeb:	0f b6 45 f7          	movzbl -0x9(%ebp),%eax
   31aef:	89 44 24 04          	mov    %eax,0x4(%esp)
   31af3:	c7 04 24 60 00 00 00 	movl   $0x60,(%esp)
   31afa:	e8 95 ee ff ff       	call   30994 <out_byte>
   31aff:	e8 86 ff ff ff       	call   31a8a <kb_ack>
   31b04:	c9                   	leave  
   31b05:	c3                   	ret    
   31b06:	90                   	nop
   31b07:	90                   	nop

00031b08 <itoa>:
   31b08:	55                   	push   %ebp
   31b09:	89 e5                	mov    %esp,%ebp
   31b0b:	53                   	push   %ebx
   31b0c:	83 ec 10             	sub    $0x10,%esp
   31b0f:	8b 45 08             	mov    0x8(%ebp),%eax
   31b12:	89 45 ec             	mov    %eax,-0x14(%ebp)
   31b15:	c7 45 f8 00 00 00 00 	movl   $0x0,-0x8(%ebp)
   31b1c:	8b 45 ec             	mov    -0x14(%ebp),%eax
   31b1f:	c6 00 30             	movb   $0x30,(%eax)
   31b22:	83 45 ec 01          	addl   $0x1,-0x14(%ebp)
   31b26:	8b 45 ec             	mov    -0x14(%ebp),%eax
   31b29:	c6 00 78             	movb   $0x78,(%eax)
   31b2c:	83 45 ec 01          	addl   $0x1,-0x14(%ebp)
   31b30:	83 7d 0c 00          	cmpl   $0x0,0xc(%ebp)
   31b34:	75 0c                	jne    31b42 <itoa+0x3a>
   31b36:	8b 45 ec             	mov    -0x14(%ebp),%eax
   31b39:	c6 00 30             	movb   $0x30,(%eax)
   31b3c:	83 45 ec 01          	addl   $0x1,-0x14(%ebp)
   31b40:	eb 61                	jmp    31ba3 <itoa+0x9b>
   31b42:	c7 45 f4 1c 00 00 00 	movl   $0x1c,-0xc(%ebp)
   31b49:	eb 52                	jmp    31b9d <itoa+0x95>
   31b4b:	8b 45 f4             	mov    -0xc(%ebp),%eax
   31b4e:	8b 55 0c             	mov    0xc(%ebp),%edx
   31b51:	89 d3                	mov    %edx,%ebx
   31b53:	89 c1                	mov    %eax,%ecx
   31b55:	d3 fb                	sar    %cl,%ebx
   31b57:	89 d8                	mov    %ebx,%eax
   31b59:	83 e0 0f             	and    $0xf,%eax
   31b5c:	88 45 f3             	mov    %al,-0xd(%ebp)
   31b5f:	83 7d f8 00          	cmpl   $0x0,-0x8(%ebp)
   31b63:	75 06                	jne    31b6b <itoa+0x63>
   31b65:	80 7d f3 00          	cmpb   $0x0,-0xd(%ebp)
   31b69:	7e 2e                	jle    31b99 <itoa+0x91>
   31b6b:	c7 45 f8 01 00 00 00 	movl   $0x1,-0x8(%ebp)
   31b72:	0f b6 45 f3          	movzbl -0xd(%ebp),%eax
   31b76:	83 c0 30             	add    $0x30,%eax
   31b79:	88 45 f3             	mov    %al,-0xd(%ebp)
   31b7c:	80 7d f3 39          	cmpb   $0x39,-0xd(%ebp)
   31b80:	7e 0a                	jle    31b8c <itoa+0x84>
   31b82:	0f b6 45 f3          	movzbl -0xd(%ebp),%eax
   31b86:	83 c0 07             	add    $0x7,%eax
   31b89:	88 45 f3             	mov    %al,-0xd(%ebp)
   31b8c:	8b 45 ec             	mov    -0x14(%ebp),%eax
   31b8f:	0f b6 55 f3          	movzbl -0xd(%ebp),%edx
   31b93:	88 10                	mov    %dl,(%eax)
   31b95:	83 45 ec 01          	addl   $0x1,-0x14(%ebp)
   31b99:	83 6d f4 04          	subl   $0x4,-0xc(%ebp)
   31b9d:	83 7d f4 00          	cmpl   $0x0,-0xc(%ebp)
   31ba1:	79 a8                	jns    31b4b <itoa+0x43>
   31ba3:	8b 45 ec             	mov    -0x14(%ebp),%eax
   31ba6:	c6 00 00             	movb   $0x0,(%eax)
   31ba9:	8b 45 08             	mov    0x8(%ebp),%eax
   31bac:	83 c4 10             	add    $0x10,%esp
   31baf:	5b                   	pop    %ebx
   31bb0:	5d                   	pop    %ebp
   31bb1:	c3                   	ret    

00031bb2 <disp_int>:
   31bb2:	55                   	push   %ebp
   31bb3:	89 e5                	mov    %esp,%ebp
   31bb5:	83 ec 28             	sub    $0x28,%esp
   31bb8:	8b 45 08             	mov    0x8(%ebp),%eax
   31bbb:	89 44 24 04          	mov    %eax,0x4(%esp)
   31bbf:	8d 45 e8             	lea    -0x18(%ebp),%eax
   31bc2:	89 04 24             	mov    %eax,(%esp)
   31bc5:	e8 3e ff ff ff       	call   31b08 <itoa>
   31bca:	8d 45 e8             	lea    -0x18(%ebp),%eax
   31bcd:	89 04 24             	mov    %eax,(%esp)
   31bd0:	e8 30 ed ff ff       	call   30905 <disp_str>
   31bd5:	c9                   	leave  
   31bd6:	c3                   	ret    

00031bd7 <delay>:
   31bd7:	55                   	push   %ebp
   31bd8:	89 e5                	mov    %esp,%ebp
   31bda:	83 ec 10             	sub    $0x10,%esp
   31bdd:	c7 45 fc 00 00 00 00 	movl   $0x0,-0x4(%ebp)
   31be4:	eb 2d                	jmp    31c13 <delay+0x3c>
   31be6:	c7 45 f4 00 00 00 00 	movl   $0x0,-0xc(%ebp)
   31bed:	eb 1a                	jmp    31c09 <delay+0x32>
   31bef:	c7 45 f8 00 00 00 00 	movl   $0x0,-0x8(%ebp)
   31bf6:	eb 04                	jmp    31bfc <delay+0x25>
   31bf8:	83 45 f8 01          	addl   $0x1,-0x8(%ebp)
   31bfc:	81 7d f8 0f 27 00 00 	cmpl   $0x270f,-0x8(%ebp)
   31c03:	7e f3                	jle    31bf8 <delay+0x21>
   31c05:	83 45 f4 01          	addl   $0x1,-0xc(%ebp)
   31c09:	83 7d f4 63          	cmpl   $0x63,-0xc(%ebp)
   31c0d:	7e e0                	jle    31bef <delay+0x18>
   31c0f:	83 45 fc 01          	addl   $0x1,-0x4(%ebp)
   31c13:	8b 45 fc             	mov    -0x4(%ebp),%eax
   31c16:	3b 45 08             	cmp    0x8(%ebp),%eax
   31c19:	7c cb                	jl     31be6 <delay+0xf>
   31c1b:	c9                   	leave  
   31c1c:	c3                   	ret    
   31c1d:	90                   	nop
   31c1e:	90                   	nop
   31c1f:	90                   	nop

00031c20 <kernel_main>:
   31c20:	55                   	push   %ebp
   31c21:	89 e5                	mov    %esp,%ebp
   31c23:	83 ec 38             	sub    $0x38,%esp
   31c26:	c7 04 24 34 5d 03 00 	movl   $0x35d34,(%esp)
   31c2d:	e8 d3 ec ff ff       	call   30905 <disp_str>
   31c32:	c7 45 d8 20 70 03 00 	movl   $0x37020,-0x28(%ebp)
   31c39:	c7 45 dc 60 79 06 00 	movl   $0x67960,-0x24(%ebp)
   31c40:	c7 45 e0 80 5f 06 00 	movl   $0x65f80,-0x20(%ebp)
   31c47:	66 c7 45 e6 28 00    	movw   $0x28,-0x1a(%ebp)
   31c4d:	c7 45 e8 00 00 00 00 	movl   $0x0,-0x18(%ebp)
   31c54:	e9 06 02 00 00       	jmp    31e5f <kernel_main+0x23f>
   31c59:	83 7d e8 05          	cmpl   $0x5,-0x18(%ebp)
   31c5d:	7f 2d                	jg     31c8c <kernel_main+0x6c>
   31c5f:	8b 55 e8             	mov    -0x18(%ebp),%edx
   31c62:	89 d0                	mov    %edx,%eax
   31c64:	c1 e0 02             	shl    $0x2,%eax
   31c67:	01 d0                	add    %edx,%eax
   31c69:	c1 e0 03             	shl    $0x3,%eax
   31c6c:	05 20 70 03 00       	add    $0x37020,%eax
   31c71:	89 45 d8             	mov    %eax,-0x28(%ebp)
   31c74:	c6 45 ee 01          	movb   $0x1,-0x12(%ebp)
   31c78:	c6 45 ef 01          	movb   $0x1,-0x11(%ebp)
   31c7c:	c7 45 f0 02 12 00 00 	movl   $0x1202,-0x10(%ebp)
   31c83:	c7 45 f4 0f 00 00 00 	movl   $0xf,-0xc(%ebp)
   31c8a:	eb 30                	jmp    31cbc <kernel_main+0x9c>
   31c8c:	8b 55 e8             	mov    -0x18(%ebp),%edx
   31c8f:	89 d0                	mov    %edx,%eax
   31c91:	c1 e0 02             	shl    $0x2,%eax
   31c94:	01 d0                	add    %edx,%eax
   31c96:	c1 e0 03             	shl    $0x3,%eax
   31c99:	2d f0 00 00 00       	sub    $0xf0,%eax
   31c9e:	05 20 71 03 00       	add    $0x37120,%eax
   31ca3:	89 45 d8             	mov    %eax,-0x28(%ebp)
   31ca6:	c6 45 ee 03          	movb   $0x3,-0x12(%ebp)
   31caa:	c6 45 ef 03          	movb   $0x3,-0x11(%ebp)
   31cae:	c7 45 f0 02 02 00 00 	movl   $0x202,-0x10(%ebp)
   31cb5:	c7 45 f4 05 00 00 00 	movl   $0x5,-0xc(%ebp)
   31cbc:	8b 45 d8             	mov    -0x28(%ebp),%eax
   31cbf:	8d 50 08             	lea    0x8(%eax),%edx
   31cc2:	8b 45 dc             	mov    -0x24(%ebp),%eax
   31cc5:	83 c0 68             	add    $0x68,%eax
   31cc8:	89 54 24 04          	mov    %edx,0x4(%esp)
   31ccc:	89 04 24             	mov    %eax,(%esp)
   31ccf:	e8 b2 ed ff ff       	call   30a86 <strcpy>
   31cd4:	8b 55 e8             	mov    -0x18(%ebp),%edx
   31cd7:	8b 45 dc             	mov    -0x24(%ebp),%eax
   31cda:	89 50 64             	mov    %edx,0x64(%eax)
   31cdd:	8b 45 dc             	mov    -0x24(%ebp),%eax
   31ce0:	0f b7 55 e6          	movzwl -0x1a(%ebp),%edx
   31ce4:	66 89 50 48          	mov    %dx,0x48(%eax)
   31ce8:	8b 45 dc             	mov    -0x24(%ebp),%eax
   31ceb:	83 c0 4a             	add    $0x4a,%eax
   31cee:	c7 44 24 08 08 00 00 	movl   $0x8,0x8(%esp)
   31cf5:	00 
   31cf6:	c7 44 24 04 a8 5f 06 	movl   $0x65fa8,0x4(%esp)
   31cfd:	00 
   31cfe:	89 04 24             	mov    %eax,(%esp)
   31d01:	e8 2a ed ff ff       	call   30a30 <memcpy>
   31d06:	0f b6 45 ee          	movzbl -0x12(%ebp),%eax
   31d0a:	c1 e0 05             	shl    $0x5,%eax
   31d0d:	83 c8 98             	or     $0xffffff98,%eax
   31d10:	89 c2                	mov    %eax,%edx
   31d12:	8b 45 dc             	mov    -0x24(%ebp),%eax
   31d15:	88 50 4f             	mov    %dl,0x4f(%eax)
   31d18:	8b 45 dc             	mov    -0x24(%ebp),%eax
   31d1b:	83 c0 4a             	add    $0x4a,%eax
   31d1e:	83 c0 08             	add    $0x8,%eax
   31d21:	c7 44 24 08 08 00 00 	movl   $0x8,0x8(%esp)
   31d28:	00 
   31d29:	c7 44 24 04 b0 5f 06 	movl   $0x65fb0,0x4(%esp)
   31d30:	00 
   31d31:	89 04 24             	mov    %eax,(%esp)
   31d34:	e8 f7 ec ff ff       	call   30a30 <memcpy>
   31d39:	0f b6 45 ee          	movzbl -0x12(%ebp),%eax
   31d3d:	c1 e0 05             	shl    $0x5,%eax
   31d40:	83 c8 92             	or     $0xffffff92,%eax
   31d43:	89 c2                	mov    %eax,%edx
   31d45:	8b 45 dc             	mov    -0x24(%ebp),%eax
   31d48:	88 50 57             	mov    %dl,0x57(%eax)
   31d4b:	0f b6 45 ef          	movzbl -0x11(%ebp),%eax
   31d4f:	83 c8 04             	or     $0x4,%eax
   31d52:	0f b6 d0             	movzbl %al,%edx
   31d55:	8b 45 dc             	mov    -0x24(%ebp),%eax
   31d58:	89 50 38             	mov    %edx,0x38(%eax)
   31d5b:	0f b6 45 ef          	movzbl -0x11(%ebp),%eax
   31d5f:	83 c8 0c             	or     $0xc,%eax
   31d62:	0f b6 d0             	movzbl %al,%edx
   31d65:	8b 45 dc             	mov    -0x24(%ebp),%eax
   31d68:	89 50 0c             	mov    %edx,0xc(%eax)
   31d6b:	0f b6 45 ef          	movzbl -0x11(%ebp),%eax
   31d6f:	83 c8 0c             	or     $0xc,%eax
   31d72:	0f b6 d0             	movzbl %al,%edx
   31d75:	8b 45 dc             	mov    -0x24(%ebp),%eax
   31d78:	89 50 08             	mov    %edx,0x8(%eax)
   31d7b:	0f b6 45 ef          	movzbl -0x11(%ebp),%eax
   31d7f:	83 c8 0c             	or     $0xc,%eax
   31d82:	0f b6 d0             	movzbl %al,%edx
   31d85:	8b 45 dc             	mov    -0x24(%ebp),%eax
   31d88:	89 50 04             	mov    %edx,0x4(%eax)
   31d8b:	0f b6 45 ef          	movzbl -0x11(%ebp),%eax
   31d8f:	83 c8 0c             	or     $0xc,%eax
   31d92:	0f b6 d0             	movzbl %al,%edx
   31d95:	8b 45 dc             	mov    -0x24(%ebp),%eax
   31d98:	89 50 44             	mov    %edx,0x44(%eax)
   31d9b:	0f b6 45 ef          	movzbl -0x11(%ebp),%eax
   31d9f:	83 c8 18             	or     $0x18,%eax
   31da2:	0f b6 d0             	movzbl %al,%edx
   31da5:	8b 45 dc             	mov    -0x24(%ebp),%eax
   31da8:	89 10                	mov    %edx,(%eax)
   31daa:	8b 45 d8             	mov    -0x28(%ebp),%eax
   31dad:	8b 00                	mov    (%eax),%eax
   31daf:	89 c2                	mov    %eax,%edx
   31db1:	8b 45 dc             	mov    -0x24(%ebp),%eax
   31db4:	89 50 34             	mov    %edx,0x34(%eax)
   31db7:	8b 55 e0             	mov    -0x20(%ebp),%edx
   31dba:	8b 45 dc             	mov    -0x24(%ebp),%eax
   31dbd:	89 50 40             	mov    %edx,0x40(%eax)
   31dc0:	8b 55 f0             	mov    -0x10(%ebp),%edx
   31dc3:	8b 45 dc             	mov    -0x24(%ebp),%eax
   31dc6:	89 50 3c             	mov    %edx,0x3c(%eax)
   31dc9:	8b 45 dc             	mov    -0x24(%ebp),%eax
   31dcc:	c7 40 78 00 00 00 00 	movl   $0x0,0x78(%eax)
   31dd3:	8b 45 dc             	mov    -0x24(%ebp),%eax
   31dd6:	c7 40 7c 00 00 00 00 	movl   $0x0,0x7c(%eax)
   31ddd:	8b 45 dc             	mov    -0x24(%ebp),%eax
   31de0:	c7 80 80 00 00 00 1c 	movl   $0x1c,0x80(%eax)
   31de7:	00 00 00 
   31dea:	8b 45 dc             	mov    -0x24(%ebp),%eax
   31ded:	c7 80 84 00 00 00 1c 	movl   $0x1c,0x84(%eax)
   31df4:	00 00 00 
   31df7:	8b 45 dc             	mov    -0x24(%ebp),%eax
   31dfa:	c7 80 88 00 00 00 00 	movl   $0x0,0x88(%eax)
   31e01:	00 00 00 
   31e04:	8b 45 dc             	mov    -0x24(%ebp),%eax
   31e07:	c7 80 8c 00 00 00 00 	movl   $0x0,0x8c(%eax)
   31e0e:	00 00 00 
   31e11:	8b 45 dc             	mov    -0x24(%ebp),%eax
   31e14:	c7 80 90 00 00 00 00 	movl   $0x0,0x90(%eax)
   31e1b:	00 00 00 
   31e1e:	8b 45 dc             	mov    -0x24(%ebp),%eax
   31e21:	8b 55 f4             	mov    -0xc(%ebp),%edx
   31e24:	89 50 60             	mov    %edx,0x60(%eax)
   31e27:	8b 45 dc             	mov    -0x24(%ebp),%eax
   31e2a:	8b 50 60             	mov    0x60(%eax),%edx
   31e2d:	8b 45 dc             	mov    -0x24(%ebp),%eax
   31e30:	89 50 5c             	mov    %edx,0x5c(%eax)
   31e33:	8b 45 d8             	mov    -0x28(%ebp),%eax
   31e36:	8b 40 04             	mov    0x4(%eax),%eax
   31e39:	f7 d8                	neg    %eax
   31e3b:	01 45 e0             	add    %eax,-0x20(%ebp)
   31e3e:	81 45 dc a4 00 00 00 	addl   $0xa4,-0x24(%ebp)
   31e45:	83 45 d8 28          	addl   $0x28,-0x28(%ebp)
   31e49:	66 83 45 e6 08       	addw   $0x8,-0x1a(%ebp)
   31e4e:	8b 45 dc             	mov    -0x24(%ebp),%eax
   31e51:	c7 80 a0 00 00 00 00 	movl   $0x0,0xa0(%eax)
   31e58:	00 00 00 
   31e5b:	83 45 e8 01          	addl   $0x1,-0x18(%ebp)
   31e5f:	83 7d e8 07          	cmpl   $0x7,-0x18(%ebp)
   31e63:	0f 8e f0 fd ff ff    	jle    31c59 <kernel_main+0x39>
   31e69:	c7 05 a8 7b 06 00 ff 	movl   $0x7fffffff,0x67ba8
   31e70:	ff ff 7f 
   31e73:	c7 05 80 5f 06 00 00 	movl   $0x0,0x65f80
   31e7a:	00 00 00 
   31e7d:	c7 05 68 70 06 00 ff 	movl   $0x7fffffff,0x67068
   31e84:	ff ff 7f 
   31e87:	c7 05 d8 7d 06 00 01 	movl   $0x1,0x67dd8
   31e8e:	00 00 00 
   31e91:	c7 05 7c 7e 06 00 01 	movl   $0x1,0x67e7c
   31e98:	00 00 00 
   31e9b:	c7 05 48 7b 06 00 02 	movl   $0x2,0x67b48
   31ea2:	00 00 00 
   31ea5:	c7 05 84 5f 06 00 00 	movl   $0x0,0x65f84
   31eac:	00 00 00 
   31eaf:	c7 05 40 79 06 00 60 	movl   $0x67960,0x67940
   31eb6:	79 06 00 
   31eb9:	a1 40 79 06 00       	mov    0x67940,%eax
   31ebe:	a3 a0 63 06 00       	mov    %eax,0x663a0
   31ec3:	e8 14 02 00 00       	call   320dc <init_clock>
   31ec8:	e8 2a f6 ff ff       	call   314f7 <init_keyboard>
   31ecd:	c7 05 a0 78 06 00 00 	movl   $0x0,0x678a0
   31ed4:	00 00 00 
   31ed7:	c7 05 74 70 06 00 00 	movl   $0x0,0x67074
   31ede:	00 00 00 
   31ee1:	c7 45 e8 00 00 00 00 	movl   $0x0,-0x18(%ebp)
   31ee8:	eb 10                	jmp    31efa <kernel_main+0x2da>
   31eea:	c7 04 24 55 5d 03 00 	movl   $0x35d55,(%esp)
   31ef1:	e8 0f ea ff ff       	call   30905 <disp_str>
   31ef6:	83 45 e8 01          	addl   $0x1,-0x18(%ebp)
   31efa:	81 7d e8 cf 07 00 00 	cmpl   $0x7cf,-0x18(%ebp)
   31f01:	7e e7                	jle    31eea <kernel_main+0x2ca>
   31f03:	c7 05 74 70 06 00 00 	movl   $0x0,0x67074
   31f0a:	00 00 00 
   31f0d:	e8 11 e9 ff ff       	call   30823 <restart>
   31f12:	eb fe                	jmp    31f12 <kernel_main+0x2f2>

00031f14 <sleep>:
   31f14:	55                   	push   %ebp
   31f15:	89 e5                	mov    %esp,%ebp
   31f17:	83 ec 48             	sub    $0x48,%esp
   31f1a:	8d 45 c8             	lea    -0x38(%ebp),%eax
   31f1d:	89 04 24             	mov    %eax,(%esp)
   31f20:	e8 17 09 00 00       	call   3283c <reset_msg>
   31f25:	c7 45 cc 03 00 00 00 	movl   $0x3,-0x34(%ebp)
   31f2c:	8b 4d 08             	mov    0x8(%ebp),%ecx
   31f2f:	ba d3 4d 62 10       	mov    $0x10624dd3,%edx
   31f34:	89 c8                	mov    %ecx,%eax
   31f36:	f7 ea                	imul   %edx
   31f38:	c1 fa 06             	sar    $0x6,%edx
   31f3b:	89 c8                	mov    %ecx,%eax
   31f3d:	c1 f8 1f             	sar    $0x1f,%eax
   31f40:	89 d1                	mov    %edx,%ecx
   31f42:	29 c1                	sub    %eax,%ecx
   31f44:	89 c8                	mov    %ecx,%eax
   31f46:	6b c0 64             	imul   $0x64,%eax,%eax
   31f49:	89 45 d0             	mov    %eax,-0x30(%ebp)
   31f4c:	8d 45 c8             	lea    -0x38(%ebp),%eax
   31f4f:	89 44 24 08          	mov    %eax,0x8(%esp)
   31f53:	c7 44 24 04 02 00 00 	movl   $0x2,0x4(%esp)
   31f5a:	00 
   31f5b:	c7 04 24 03 00 00 00 	movl   $0x3,(%esp)
   31f62:	e8 34 07 00 00       	call   3269b <send_recv>
   31f67:	8d 45 c8             	lea    -0x38(%ebp),%eax
   31f6a:	89 04 24             	mov    %eax,(%esp)
   31f6d:	e8 ca 08 00 00       	call   3283c <reset_msg>
   31f72:	a1 a0 78 06 00       	mov    0x678a0,%eax
   31f77:	8b 15 40 79 06 00    	mov    0x67940,%edx
   31f7d:	83 c2 68             	add    $0x68,%edx
   31f80:	89 44 24 08          	mov    %eax,0x8(%esp)
   31f84:	89 54 24 04          	mov    %edx,0x4(%esp)
   31f88:	c7 04 24 58 5d 03 00 	movl   $0x35d58,(%esp)
   31f8f:	e8 00 2a 00 00       	call   34994 <printf>
   31f94:	8d 45 c8             	lea    -0x38(%ebp),%eax
   31f97:	89 44 24 08          	mov    %eax,0x8(%esp)
   31f9b:	c7 44 24 04 12 00 00 	movl   $0x12,0x4(%esp)
   31fa2:	00 
   31fa3:	c7 04 24 02 00 00 00 	movl   $0x2,(%esp)
   31faa:	e8 ec 06 00 00       	call   3269b <send_recv>
   31faf:	a1 a0 78 06 00       	mov    0x678a0,%eax
   31fb4:	8b 15 40 79 06 00    	mov    0x67940,%edx
   31fba:	83 c2 68             	add    $0x68,%edx
   31fbd:	89 44 24 08          	mov    %eax,0x8(%esp)
   31fc1:	89 54 24 04          	mov    %edx,0x4(%esp)
   31fc5:	c7 04 24 77 5d 03 00 	movl   $0x35d77,(%esp)
   31fcc:	e8 c3 29 00 00       	call   34994 <printf>
   31fd1:	c9                   	leave  
   31fd2:	c3                   	ret    

00031fd3 <get_ticks>:
   31fd3:	55                   	push   %ebp
   31fd4:	89 e5                	mov    %esp,%ebp
   31fd6:	83 ec 48             	sub    $0x48,%esp
   31fd9:	8d 45 c8             	lea    -0x38(%ebp),%eax
   31fdc:	89 04 24             	mov    %eax,(%esp)
   31fdf:	e8 58 08 00 00       	call   3283c <reset_msg>
   31fe4:	c7 45 cc 02 00 00 00 	movl   $0x2,-0x34(%ebp)
   31feb:	8d 45 c8             	lea    -0x38(%ebp),%eax
   31fee:	89 44 24 08          	mov    %eax,0x8(%esp)
   31ff2:	c7 44 24 04 02 00 00 	movl   $0x2,0x4(%esp)
   31ff9:	00 
   31ffa:	c7 04 24 03 00 00 00 	movl   $0x3,(%esp)
   32001:	e8 95 06 00 00       	call   3269b <send_recv>
   32006:	8b 45 d0             	mov    -0x30(%ebp),%eax
   32009:	c9                   	leave  
   3200a:	c3                   	ret    

0003200b <TestA>:
   3200b:	55                   	push   %ebp
   3200c:	89 e5                	mov    %esp,%ebp
   3200e:	83 ec 18             	sub    $0x18,%esp
   32011:	a1 a0 78 06 00       	mov    0x678a0,%eax
   32016:	89 44 24 04          	mov    %eax,0x4(%esp)
   3201a:	c7 04 24 8b 5d 03 00 	movl   $0x35d8b,(%esp)
   32021:	e8 6e 29 00 00       	call   34994 <printf>
   32026:	c7 04 24 88 13 00 00 	movl   $0x1388,(%esp)
   3202d:	e8 e2 fe ff ff       	call   31f14 <sleep>
   32032:	c7 04 24 96 5d 03 00 	movl   $0x35d96,(%esp)
   32039:	e8 56 29 00 00       	call   34994 <printf>
   3203e:	eb d1                	jmp    32011 <TestA+0x6>

00032040 <TestB>:
   32040:	55                   	push   %ebp
   32041:	89 e5                	mov    %esp,%ebp
   32043:	83 ec 58             	sub    $0x58,%esp
   32046:	c7 45 f4 00 10 00 00 	movl   $0x1000,-0xc(%ebp)
   3204d:	8d 45 c4             	lea    -0x3c(%ebp),%eax
   32050:	89 04 24             	mov    %eax,(%esp)
   32053:	e8 e4 07 00 00       	call   3283c <reset_msg>
   32058:	a1 a0 78 06 00       	mov    0x678a0,%eax
   3205d:	8b 15 40 79 06 00    	mov    0x67940,%edx
   32063:	83 c2 68             	add    $0x68,%edx
   32066:	89 44 24 08          	mov    %eax,0x8(%esp)
   3206a:	89 54 24 04          	mov    %edx,0x4(%esp)
   3206e:	c7 04 24 9d 5d 03 00 	movl   $0x35d9d,(%esp)
   32075:	e8 1a 29 00 00       	call   34994 <printf>
   3207a:	c7 04 24 10 27 00 00 	movl   $0x2710,(%esp)
   32081:	e8 8e fe ff ff       	call   31f14 <sleep>
   32086:	eb d0                	jmp    32058 <TestB+0x18>

00032088 <panic>:
   32088:	55                   	push   %ebp
   32089:	89 e5                	mov    %esp,%ebp
   3208b:	81 ec 28 01 00 00    	sub    $0x128,%esp
   32091:	8d 45 08             	lea    0x8(%ebp),%eax
   32094:	83 c0 04             	add    $0x4,%eax
   32097:	89 45 f4             	mov    %eax,-0xc(%ebp)
   3209a:	8b 45 08             	mov    0x8(%ebp),%eax
   3209d:	8b 55 f4             	mov    -0xc(%ebp),%edx
   320a0:	89 54 24 08          	mov    %edx,0x8(%esp)
   320a4:	89 44 24 04          	mov    %eax,0x4(%esp)
   320a8:	8d 85 f0 fe ff ff    	lea    -0x110(%ebp),%eax
   320ae:	89 04 24             	mov    %eax,(%esp)
   320b1:	e8 99 29 00 00       	call   34a4f <vsprintf>
   320b6:	89 45 f0             	mov    %eax,-0x10(%ebp)
   320b9:	8d 85 f0 fe ff ff    	lea    -0x110(%ebp),%eax
   320bf:	89 44 24 08          	mov    %eax,0x8(%esp)
   320c3:	c7 44 24 04 02 00 00 	movl   $0x2,0x4(%esp)
   320ca:	00 
   320cb:	c7 04 24 a5 5d 03 00 	movl   $0x35da5,(%esp)
   320d2:	e8 bd 28 00 00       	call   34994 <printf>
   320d7:	0f 0b                	ud2a   
   320d9:	c9                   	leave  
   320da:	c3                   	ret    
   320db:	90                   	nop

000320dc <init_clock>:
   320dc:	55                   	push   %ebp
   320dd:	89 e5                	mov    %esp,%ebp
   320df:	83 ec 48             	sub    $0x48,%esp
   320e2:	c7 44 24 04 34 00 00 	movl   $0x34,0x4(%esp)
   320e9:	00 
   320ea:	c7 04 24 43 00 00 00 	movl   $0x43,(%esp)
   320f1:	e8 9e e8 ff ff       	call   30994 <out_byte>
   320f6:	c7 44 24 04 9b 00 00 	movl   $0x9b,0x4(%esp)
   320fd:	00 
   320fe:	c7 04 24 40 00 00 00 	movl   $0x40,(%esp)
   32105:	e8 8a e8 ff ff       	call   30994 <out_byte>
   3210a:	c7 44 24 04 2e 00 00 	movl   $0x2e,0x4(%esp)
   32111:	00 
   32112:	c7 04 24 40 00 00 00 	movl   $0x40,(%esp)
   32119:	e8 76 e8 ff ff       	call   30994 <out_byte>
   3211e:	c7 44 24 04 6c 23 03 	movl   $0x3236c,0x4(%esp)
   32125:	00 
   32126:	c7 04 24 00 00 00 00 	movl   $0x0,(%esp)
   3212d:	e8 32 eb ff ff       	call   30c64 <put_irq_handler>
   32132:	c7 04 24 00 00 00 00 	movl   $0x0,(%esp)
   32139:	e8 a1 e8 ff ff       	call   309df <enable_irq>
   3213e:	c7 45 d0 00 94 35 77 	movl   $0x77359400,-0x30(%ebp)
   32145:	c7 45 c8 02 00 00 00 	movl   $0x2,-0x38(%ebp)
   3214c:	8d 45 c8             	lea    -0x38(%ebp),%eax
   3214f:	89 04 24             	mov    %eax,(%esp)
   32152:	e8 2b 01 00 00       	call   32282 <set_timer>
   32157:	c7 05 68 70 06 00 ff 	movl   $0xffffffff,0x67068
   3215e:	ff ff ff 
   32161:	c9                   	leave  
   32162:	c3                   	ret    

00032163 <task_clock>:
   32163:	55                   	push   %ebp
   32164:	89 e5                	mov    %esp,%ebp
   32166:	83 ec 58             	sub    $0x58,%esp
   32169:	8d 45 c4             	lea    -0x3c(%ebp),%eax
   3216c:	89 04 24             	mov    %eax,(%esp)
   3216f:	e8 c8 06 00 00       	call   3283c <reset_msg>
   32174:	8d 45 c4             	lea    -0x3c(%ebp),%eax
   32177:	89 44 24 08          	mov    %eax,0x8(%esp)
   3217b:	c7 44 24 04 12 00 00 	movl   $0x12,0x4(%esp)
   32182:	00 
   32183:	c7 04 24 02 00 00 00 	movl   $0x2,(%esp)
   3218a:	e8 0c 05 00 00       	call   3269b <send_recv>
   3218f:	8b 45 c8             	mov    -0x38(%ebp),%eax
   32192:	83 f8 01             	cmp    $0x1,%eax
   32195:	75 0b                	jne    321a2 <task_clock+0x3f>
   32197:	e8 1b 00 00 00       	call   321b7 <do_clockclick>
   3219c:	89 45 f4             	mov    %eax,-0xc(%ebp)
   3219f:	90                   	nop
   321a0:	eb c7                	jmp    32169 <task_clock+0x6>
   321a2:	8b 45 c4             	mov    -0x3c(%ebp),%eax
   321a5:	89 44 24 04          	mov    %eax,0x4(%esp)
   321a9:	c7 04 24 b8 5d 03 00 	movl   $0x35db8,(%esp)
   321b0:	e8 df 27 00 00       	call   34994 <printf>
   321b5:	eb b2                	jmp    32169 <task_clock+0x6>

000321b7 <do_clockclick>:
   321b7:	55                   	push   %ebp
   321b8:	89 e5                	mov    %esp,%ebp
   321ba:	83 ec 18             	sub    $0x18,%esp
   321bd:	e8 88 02 00 00       	call   3244a <schedule>
   321c2:	8b 15 68 70 06 00    	mov    0x67068,%edx
   321c8:	a1 a0 78 06 00       	mov    0x678a0,%eax
   321cd:	39 c2                	cmp    %eax,%edx
   321cf:	7f 36                	jg     32207 <do_clockclick+0x50>
   321d1:	a1 a0 78 06 00       	mov    0x678a0,%eax
   321d6:	89 44 24 04          	mov    %eax,0x4(%esp)
   321da:	c7 04 24 80 5f 06 00 	movl   $0x65f80,(%esp)
   321e1:	e8 28 00 00 00       	call   3220e <exp_timer>
   321e6:	a1 80 5f 06 00       	mov    0x65f80,%eax
   321eb:	85 c0                	test   %eax,%eax
   321ed:	74 0e                	je     321fd <do_clockclick+0x46>
   321ef:	a1 80 5f 06 00       	mov    0x65f80,%eax
   321f4:	8b 00                	mov    (%eax),%eax
   321f6:	a3 68 70 06 00       	mov    %eax,0x67068
   321fb:	eb 0a                	jmp    32207 <do_clockclick+0x50>
   321fd:	c7 05 68 70 06 00 ff 	movl   $0x7fffffff,0x67068
   32204:	ff ff 7f 
   32207:	b8 00 00 00 00       	mov    $0x0,%eax
   3220c:	c9                   	leave  
   3220d:	c3                   	ret    

0003220e <exp_timer>:
   3220e:	55                   	push   %ebp
   3220f:	89 e5                	mov    %esp,%ebp
   32211:	83 ec 18             	sub    $0x18,%esp
   32214:	eb 55                	jmp    3226b <exp_timer+0x5d>
   32216:	a1 a0 78 06 00       	mov    0x678a0,%eax
   3221b:	8b 55 08             	mov    0x8(%ebp),%edx
   3221e:	8b 12                	mov    (%edx),%edx
   32220:	8b 52 08             	mov    0x8(%edx),%edx
   32223:	69 d2 a4 00 00 00    	imul   $0xa4,%edx,%edx
   32229:	81 c2 60 79 06 00    	add    $0x67960,%edx
   3222f:	83 c2 68             	add    $0x68,%edx
   32232:	89 44 24 08          	mov    %eax,0x8(%esp)
   32236:	89 54 24 04          	mov    %edx,0x4(%esp)
   3223a:	c7 04 24 da 5d 03 00 	movl   $0x35dda,(%esp)
   32241:	e8 4e 27 00 00       	call   34994 <printf>
   32246:	8b 45 08             	mov    0x8(%ebp),%eax
   32249:	8b 00                	mov    (%eax),%eax
   3224b:	8b 40 08             	mov    0x8(%eax),%eax
   3224e:	89 44 24 04          	mov    %eax,0x4(%esp)
   32252:	c7 04 24 00 00 00 00 	movl   $0x0,(%esp)
   32259:	e8 79 1c 00 00       	call   33ed7 <lock_notify>
   3225e:	8b 45 08             	mov    0x8(%ebp),%eax
   32261:	8b 00                	mov    (%eax),%eax
   32263:	8b 50 04             	mov    0x4(%eax),%edx
   32266:	8b 45 08             	mov    0x8(%ebp),%eax
   32269:	89 10                	mov    %edx,(%eax)
   3226b:	8b 45 08             	mov    0x8(%ebp),%eax
   3226e:	8b 00                	mov    (%eax),%eax
   32270:	85 c0                	test   %eax,%eax
   32272:	74 0c                	je     32280 <exp_timer+0x72>
   32274:	8b 45 08             	mov    0x8(%ebp),%eax
   32277:	8b 00                	mov    (%eax),%eax
   32279:	8b 00                	mov    (%eax),%eax
   3227b:	3b 45 0c             	cmp    0xc(%ebp),%eax
   3227e:	7c 96                	jl     32216 <exp_timer+0x8>
   32280:	c9                   	leave  
   32281:	c3                   	ret    

00032282 <set_timer>:
   32282:	55                   	push   %ebp
   32283:	89 e5                	mov    %esp,%ebp
   32285:	83 ec 28             	sub    $0x28,%esp
   32288:	8b 45 08             	mov    0x8(%ebp),%eax
   3228b:	8b 40 08             	mov    0x8(%eax),%eax
   3228e:	89 45 e8             	mov    %eax,-0x18(%ebp)
   32291:	8b 45 08             	mov    0x8(%ebp),%eax
   32294:	8b 00                	mov    (%eax),%eax
   32296:	69 c0 a4 00 00 00    	imul   $0xa4,%eax,%eax
   3229c:	05 60 79 06 00       	add    $0x67960,%eax
   322a1:	89 45 ec             	mov    %eax,-0x14(%ebp)
   322a4:	8b 45 ec             	mov    -0x14(%ebp),%eax
   322a7:	05 94 00 00 00       	add    $0x94,%eax
   322ac:	89 45 f0             	mov    %eax,-0x10(%ebp)
   322af:	8b 45 f0             	mov    -0x10(%ebp),%eax
   322b2:	c7 40 04 00 00 00 00 	movl   $0x0,0x4(%eax)
   322b9:	8b 45 08             	mov    0x8(%ebp),%eax
   322bc:	8b 00                	mov    (%eax),%eax
   322be:	89 c2                	mov    %eax,%edx
   322c0:	8b 45 f0             	mov    -0x10(%ebp),%eax
   322c3:	89 50 08             	mov    %edx,0x8(%eax)
   322c6:	8b 45 f0             	mov    -0x10(%ebp),%eax
   322c9:	8b 55 e8             	mov    -0x18(%ebp),%edx
   322cc:	89 10                	mov    %edx,(%eax)
   322ce:	a1 80 5f 06 00       	mov    0x65f80,%eax
   322d3:	85 c0                	test   %eax,%eax
   322d5:	74 0c                	je     322e3 <set_timer+0x61>
   322d7:	a1 80 5f 06 00       	mov    0x65f80,%eax
   322dc:	8b 00                	mov    (%eax),%eax
   322de:	3b 45 e8             	cmp    -0x18(%ebp),%eax
   322e1:	7e 33                	jle    32316 <set_timer+0x94>
   322e3:	8b 15 80 5f 06 00    	mov    0x65f80,%edx
   322e9:	8b 45 f0             	mov    -0x10(%ebp),%eax
   322ec:	89 50 04             	mov    %edx,0x4(%eax)
   322ef:	8b 45 f0             	mov    -0x10(%ebp),%eax
   322f2:	a3 80 5f 06 00       	mov    %eax,0x65f80
   322f7:	8b 45 e8             	mov    -0x18(%ebp),%eax
   322fa:	a3 68 70 06 00       	mov    %eax,0x67068
   322ff:	a1 a0 78 06 00       	mov    0x678a0,%eax
   32304:	89 44 24 04          	mov    %eax,0x4(%esp)
   32308:	c7 04 24 f0 5d 03 00 	movl   $0x35df0,(%esp)
   3230f:	e8 80 26 00 00       	call   34994 <printf>
   32314:	eb 54                	jmp    3236a <set_timer+0xe8>
   32316:	a1 80 5f 06 00       	mov    0x65f80,%eax
   3231b:	89 45 f4             	mov    %eax,-0xc(%ebp)
   3231e:	eb 09                	jmp    32329 <set_timer+0xa7>
   32320:	8b 45 f4             	mov    -0xc(%ebp),%eax
   32323:	8b 40 04             	mov    0x4(%eax),%eax
   32326:	89 45 f4             	mov    %eax,-0xc(%ebp)
   32329:	8b 45 f4             	mov    -0xc(%ebp),%eax
   3232c:	8b 40 04             	mov    0x4(%eax),%eax
   3232f:	85 c0                	test   %eax,%eax
   32331:	74 0d                	je     32340 <set_timer+0xbe>
   32333:	8b 45 f4             	mov    -0xc(%ebp),%eax
   32336:	8b 40 04             	mov    0x4(%eax),%eax
   32339:	8b 00                	mov    (%eax),%eax
   3233b:	3b 45 e8             	cmp    -0x18(%ebp),%eax
   3233e:	7c e0                	jl     32320 <set_timer+0x9e>
   32340:	8b 45 f4             	mov    -0xc(%ebp),%eax
   32343:	8b 50 04             	mov    0x4(%eax),%edx
   32346:	8b 45 f0             	mov    -0x10(%ebp),%eax
   32349:	89 50 04             	mov    %edx,0x4(%eax)
   3234c:	8b 45 f4             	mov    -0xc(%ebp),%eax
   3234f:	8b 55 f0             	mov    -0x10(%ebp),%edx
   32352:	89 50 04             	mov    %edx,0x4(%eax)
   32355:	a1 a0 78 06 00       	mov    0x678a0,%eax
   3235a:	89 44 24 04          	mov    %eax,0x4(%esp)
   3235e:	c7 04 24 f0 5d 03 00 	movl   $0x35df0,(%esp)
   32365:	e8 2a 26 00 00       	call   34994 <printf>
   3236a:	c9                   	leave  
   3236b:	c3                   	ret    

0003236c <clock_handler>:
   3236c:	55                   	push   %ebp
   3236d:	89 e5                	mov    %esp,%ebp
   3236f:	53                   	push   %ebx
   32370:	83 ec 14             	sub    $0x14,%esp
   32373:	a1 a0 78 06 00       	mov    0x678a0,%eax
   32378:	83 c0 01             	add    $0x1,%eax
   3237b:	a3 a0 78 06 00       	mov    %eax,0x678a0
   32380:	a1 40 79 06 00       	mov    0x67940,%eax
   32385:	8b 50 5c             	mov    0x5c(%eax),%edx
   32388:	83 ea 01             	sub    $0x1,%edx
   3238b:	89 50 5c             	mov    %edx,0x5c(%eax)
   3238e:	8b 0d a0 78 06 00    	mov    0x678a0,%ecx
   32394:	ba 1f 85 eb 51       	mov    $0x51eb851f,%edx
   32399:	89 c8                	mov    %ecx,%eax
   3239b:	f7 ea                	imul   %edx
   3239d:	c1 fa 05             	sar    $0x5,%edx
   323a0:	89 c8                	mov    %ecx,%eax
   323a2:	c1 f8 1f             	sar    $0x1f,%eax
   323a5:	89 d3                	mov    %edx,%ebx
   323a7:	29 c3                	sub    %eax,%ebx
   323a9:	89 d8                	mov    %ebx,%eax
   323ab:	6b c0 64             	imul   $0x64,%eax,%eax
   323ae:	89 ca                	mov    %ecx,%edx
   323b0:	29 c2                	sub    %eax,%edx
   323b2:	89 d0                	mov    %edx,%eax
   323b4:	85 c0                	test   %eax,%eax
   323b6:	75 0c                	jne    323c4 <clock_handler+0x58>
   323b8:	c7 04 24 01 5e 03 00 	movl   $0x35e01,(%esp)
   323bf:	e8 d0 25 00 00       	call   34994 <printf>
   323c4:	a1 a0 78 06 00       	mov    0x678a0,%eax
   323c9:	3d 2c 01 00 00       	cmp    $0x12c,%eax
   323ce:	75 14                	jne    323e4 <clock_handler+0x78>
   323d0:	c7 44 24 04 05 00 00 	movl   $0x5,0x4(%esp)
   323d7:	00 
   323d8:	c7 04 24 f6 ff ff ff 	movl   $0xfffffff6,(%esp)
   323df:	e8 f3 1a 00 00       	call   33ed7 <lock_notify>
   323e4:	a1 40 79 06 00       	mov    0x67940,%eax
   323e9:	8b 40 5c             	mov    0x5c(%eax),%eax
   323ec:	85 c0                	test   %eax,%eax
   323ee:	7e 0f                	jle    323ff <clock_handler+0x93>
   323f0:	8b 15 68 70 06 00    	mov    0x67068,%edx
   323f6:	a1 a0 78 06 00       	mov    0x678a0,%eax
   323fb:	39 c2                	cmp    %eax,%edx
   323fd:	7d 14                	jge    32413 <clock_handler+0xa7>
   323ff:	c7 44 24 04 00 00 00 	movl   $0x0,0x4(%esp)
   32406:	00 
   32407:	c7 04 24 f6 ff ff ff 	movl   $0xfffffff6,(%esp)
   3240e:	e8 c4 1a 00 00       	call   33ed7 <lock_notify>
   32413:	83 c4 14             	add    $0x14,%esp
   32416:	5b                   	pop    %ebx
   32417:	5d                   	pop    %ebp
   32418:	c3                   	ret    
   32419:	90                   	nop
   3241a:	90                   	nop
   3241b:	90                   	nop
   3241c:	90                   	nop
   3241d:	90                   	nop
   3241e:	90                   	nop
   3241f:	90                   	nop

00032420 <printx>:
   32420:	b8 00 00 00 00       	mov    $0x0,%eax
   32425:	8b 54 24 04          	mov    0x4(%esp),%edx
   32429:	cd 90                	int    $0x90
   3242b:	c3                   	ret    

0003242c <sendrec>:
   3242c:	b8 01 00 00 00       	mov    $0x1,%eax
   32431:	8b 5c 24 04          	mov    0x4(%esp),%ebx
   32435:	8b 4c 24 08          	mov    0x8(%esp),%ecx
   32439:	8b 54 24 0c          	mov    0xc(%esp),%edx
   3243d:	cd 90                	int    $0x90
   3243f:	c3                   	ret    

00032440 <sys_get_ticks>:
   32440:	55                   	push   %ebp
   32441:	89 e5                	mov    %esp,%ebp
   32443:	a1 a0 78 06 00       	mov    0x678a0,%eax
   32448:	5d                   	pop    %ebp
   32449:	c3                   	ret    

0003244a <schedule>:
   3244a:	55                   	push   %ebp
   3244b:	89 e5                	mov    %esp,%ebp
   3244d:	83 ec 10             	sub    $0x10,%esp
   32450:	c7 45 f8 00 00 00 00 	movl   $0x0,-0x8(%ebp)
   32457:	c7 45 fc 00 00 00 00 	movl   $0x0,-0x4(%ebp)
   3245e:	e9 ac 00 00 00       	jmp    3250f <schedule+0xc5>
   32463:	c7 45 f4 60 79 06 00 	movl   $0x67960,-0xc(%ebp)
   3246a:	eb 3d                	jmp    324a9 <schedule+0x5f>
   3246c:	81 7d f4 4c 7b 06 00 	cmpl   $0x67b4c,-0xc(%ebp)
   32473:	74 2c                	je     324a1 <schedule+0x57>
   32475:	8b 45 f4             	mov    -0xc(%ebp),%eax
   32478:	8b 40 78             	mov    0x78(%eax),%eax
   3247b:	85 c0                	test   %eax,%eax
   3247d:	75 23                	jne    324a2 <schedule+0x58>
   3247f:	83 45 fc 01          	addl   $0x1,-0x4(%ebp)
   32483:	8b 45 f4             	mov    -0xc(%ebp),%eax
   32486:	8b 40 5c             	mov    0x5c(%eax),%eax
   32489:	3b 45 f8             	cmp    -0x8(%ebp),%eax
   3248c:	7e 14                	jle    324a2 <schedule+0x58>
   3248e:	8b 45 f4             	mov    -0xc(%ebp),%eax
   32491:	8b 40 5c             	mov    0x5c(%eax),%eax
   32494:	89 45 f8             	mov    %eax,-0x8(%ebp)
   32497:	8b 45 f4             	mov    -0xc(%ebp),%eax
   3249a:	a3 a0 63 06 00       	mov    %eax,0x663a0
   3249f:	eb 01                	jmp    324a2 <schedule+0x58>
   324a1:	90                   	nop
   324a2:	81 45 f4 a4 00 00 00 	addl   $0xa4,-0xc(%ebp)
   324a9:	81 7d f4 dc 7d 06 00 	cmpl   $0x67ddc,-0xc(%ebp)
   324b0:	76 ba                	jbe    3246c <schedule+0x22>
   324b2:	83 7d fc 00          	cmpl   $0x0,-0x4(%ebp)
   324b6:	75 16                	jne    324ce <schedule+0x84>
   324b8:	c7 05 a0 63 06 00 4c 	movl   $0x67b4c,0x663a0
   324bf:	7b 06 00 
   324c2:	c7 05 6c 70 06 00 00 	movl   $0x0,0x6706c
   324c9:	00 00 00 
   324cc:	eb 4b                	jmp    32519 <schedule+0xcf>
   324ce:	83 7d f8 00          	cmpl   $0x0,-0x8(%ebp)
   324d2:	75 3b                	jne    3250f <schedule+0xc5>
   324d4:	c7 45 f4 60 79 06 00 	movl   $0x67960,-0xc(%ebp)
   324db:	eb 29                	jmp    32506 <schedule+0xbc>
   324dd:	81 7d f4 4c 7b 06 00 	cmpl   $0x67b4c,-0xc(%ebp)
   324e4:	74 18                	je     324fe <schedule+0xb4>
   324e6:	8b 45 f4             	mov    -0xc(%ebp),%eax
   324e9:	8b 40 78             	mov    0x78(%eax),%eax
   324ec:	85 c0                	test   %eax,%eax
   324ee:	75 0f                	jne    324ff <schedule+0xb5>
   324f0:	8b 45 f4             	mov    -0xc(%ebp),%eax
   324f3:	8b 50 60             	mov    0x60(%eax),%edx
   324f6:	8b 45 f4             	mov    -0xc(%ebp),%eax
   324f9:	89 50 5c             	mov    %edx,0x5c(%eax)
   324fc:	eb 01                	jmp    324ff <schedule+0xb5>
   324fe:	90                   	nop
   324ff:	81 45 f4 a4 00 00 00 	addl   $0xa4,-0xc(%ebp)
   32506:	81 7d f4 dc 7d 06 00 	cmpl   $0x67ddc,-0xc(%ebp)
   3250d:	76 ce                	jbe    324dd <schedule+0x93>
   3250f:	83 7d f8 00          	cmpl   $0x0,-0x8(%ebp)
   32513:	0f 84 4a ff ff ff    	je     32463 <schedule+0x19>
   32519:	c9                   	leave  
   3251a:	c3                   	ret    

0003251b <sys_sendrec>:
   3251b:	55                   	push   %ebp
   3251c:	89 e5                	mov    %esp,%ebp
   3251e:	83 ec 38             	sub    $0x38,%esp
   32521:	a1 84 5f 06 00       	mov    0x65f84,%eax
   32526:	85 c0                	test   %eax,%eax
   32528:	74 2d                	je     32557 <sys_sendrec+0x3c>
   3252a:	a1 40 79 06 00       	mov    0x67940,%eax
   3252f:	89 44 24 10          	mov    %eax,0x10(%esp)
   32533:	c7 44 24 0c 6a 00 00 	movl   $0x6a,0xc(%esp)
   3253a:	00 
   3253b:	c7 44 24 08 04 5e 03 	movl   $0x35e04,0x8(%esp)
   32542:	00 
   32543:	c7 44 24 04 04 5e 03 	movl   $0x35e04,0x4(%esp)
   3254a:	00 
   3254b:	c7 04 24 12 5e 03 00 	movl   $0x35e12,(%esp)
   32552:	e8 10 29 00 00       	call   34e67 <assertion_failure>
   32557:	83 7d 0c 00          	cmpl   $0x0,0xc(%ebp)
   3255b:	78 06                	js     32563 <sys_sendrec+0x48>
   3255d:	83 7d 0c 07          	cmpl   $0x7,0xc(%ebp)
   32561:	7e 39                	jle    3259c <sys_sendrec+0x81>
   32563:	83 7d 0c 12          	cmpl   $0x12,0xc(%ebp)
   32567:	74 33                	je     3259c <sys_sendrec+0x81>
   32569:	83 7d 0c f6          	cmpl   $0xfffffff6,0xc(%ebp)
   3256d:	74 2d                	je     3259c <sys_sendrec+0x81>
   3256f:	a1 40 79 06 00       	mov    0x67940,%eax
   32574:	89 44 24 10          	mov    %eax,0x10(%esp)
   32578:	c7 44 24 0c 6d 00 00 	movl   $0x6d,0xc(%esp)
   3257f:	00 
   32580:	c7 44 24 08 04 5e 03 	movl   $0x35e04,0x8(%esp)
   32587:	00 
   32588:	c7 44 24 04 04 5e 03 	movl   $0x35e04,0x4(%esp)
   3258f:	00 
   32590:	c7 04 24 24 5e 03 00 	movl   $0x35e24,(%esp)
   32597:	e8 cb 28 00 00       	call   34e67 <assertion_failure>
   3259c:	c7 45 ec 00 00 00 00 	movl   $0x0,-0x14(%ebp)
   325a3:	8b 55 14             	mov    0x14(%ebp),%edx
   325a6:	b8 60 79 06 00       	mov    $0x67960,%eax
   325ab:	89 d1                	mov    %edx,%ecx
   325ad:	29 c1                	sub    %eax,%ecx
   325af:	89 c8                	mov    %ecx,%eax
   325b1:	c1 f8 02             	sar    $0x2,%eax
   325b4:	69 c0 19 9c 8f c1    	imul   $0xc18f9c19,%eax,%eax
   325ba:	89 45 f0             	mov    %eax,-0x10(%ebp)
   325bd:	8b 45 10             	mov    0x10(%ebp),%eax
   325c0:	89 44 24 04          	mov    %eax,0x4(%esp)
   325c4:	8b 45 f0             	mov    -0x10(%ebp),%eax
   325c7:	89 04 24             	mov    %eax,(%esp)
   325ca:	e8 f7 01 00 00       	call   327c6 <va2la>
   325cf:	89 45 f4             	mov    %eax,-0xc(%ebp)
   325d2:	8b 45 f4             	mov    -0xc(%ebp),%eax
   325d5:	8b 55 f0             	mov    -0x10(%ebp),%edx
   325d8:	89 10                	mov    %edx,(%eax)
   325da:	8b 45 f4             	mov    -0xc(%ebp),%eax
   325dd:	8b 00                	mov    (%eax),%eax
   325df:	3b 45 0c             	cmp    0xc(%ebp),%eax
   325e2:	75 2d                	jne    32611 <sys_sendrec+0xf6>
   325e4:	a1 40 79 06 00       	mov    0x67940,%eax
   325e9:	89 44 24 10          	mov    %eax,0x10(%esp)
   325ed:	c7 44 24 0c 74 00 00 	movl   $0x74,0xc(%esp)
   325f4:	00 
   325f5:	c7 44 24 08 04 5e 03 	movl   $0x35e04,0x8(%esp)
   325fc:	00 
   325fd:	c7 44 24 04 04 5e 03 	movl   $0x35e04,0x4(%esp)
   32604:	00 
   32605:	c7 04 24 82 5e 03 00 	movl   $0x35e82,(%esp)
   3260c:	e8 56 28 00 00       	call   34e67 <assertion_failure>
   32611:	83 7d 08 01          	cmpl   $0x1,0x8(%ebp)
   32615:	75 27                	jne    3263e <sys_sendrec+0x123>
   32617:	8b 45 10             	mov    0x10(%ebp),%eax
   3261a:	89 44 24 08          	mov    %eax,0x8(%esp)
   3261e:	8b 45 0c             	mov    0xc(%ebp),%eax
   32621:	89 44 24 04          	mov    %eax,0x4(%esp)
   32625:	8b 45 14             	mov    0x14(%ebp),%eax
   32628:	89 04 24             	mov    %eax,(%esp)
   3262b:	e8 c8 04 00 00       	call   32af8 <msg_send>
   32630:	89 45 ec             	mov    %eax,-0x14(%ebp)
   32633:	83 7d ec 00          	cmpl   $0x0,-0x14(%ebp)
   32637:	74 57                	je     32690 <sys_sendrec+0x175>
   32639:	8b 45 ec             	mov    -0x14(%ebp),%eax
   3263c:	eb 5b                	jmp    32699 <sys_sendrec+0x17e>
   3263e:	83 7d 08 02          	cmpl   $0x2,0x8(%ebp)
   32642:	75 27                	jne    3266b <sys_sendrec+0x150>
   32644:	8b 45 10             	mov    0x10(%ebp),%eax
   32647:	89 44 24 08          	mov    %eax,0x8(%esp)
   3264b:	8b 45 0c             	mov    0xc(%ebp),%eax
   3264e:	89 44 24 04          	mov    %eax,0x4(%esp)
   32652:	8b 45 14             	mov    0x14(%ebp),%eax
   32655:	89 04 24             	mov    %eax,(%esp)
   32658:	e8 09 0a 00 00       	call   33066 <msg_receive>
   3265d:	89 45 ec             	mov    %eax,-0x14(%ebp)
   32660:	83 7d ec 00          	cmpl   $0x0,-0x14(%ebp)
   32664:	74 2d                	je     32693 <sys_sendrec+0x178>
   32666:	8b 45 ec             	mov    -0x14(%ebp),%eax
   32669:	eb 2e                	jmp    32699 <sys_sendrec+0x17e>
   3266b:	c7 44 24 0c 02 00 00 	movl   $0x2,0xc(%esp)
   32672:	00 
   32673:	c7 44 24 08 01 00 00 	movl   $0x1,0x8(%esp)
   3267a:	00 
   3267b:	8b 45 08             	mov    0x8(%ebp),%eax
   3267e:	89 44 24 04          	mov    %eax,0x4(%esp)
   32682:	c7 04 24 9c 5e 03 00 	movl   $0x35e9c,(%esp)
   32689:	e8 fa f9 ff ff       	call   32088 <panic>
   3268e:	eb 04                	jmp    32694 <sys_sendrec+0x179>
   32690:	90                   	nop
   32691:	eb 01                	jmp    32694 <sys_sendrec+0x179>
   32693:	90                   	nop
   32694:	b8 00 00 00 00       	mov    $0x0,%eax
   32699:	c9                   	leave  
   3269a:	c3                   	ret    

0003269b <send_recv>:
   3269b:	55                   	push   %ebp
   3269c:	89 e5                	mov    %esp,%ebp
   3269e:	83 ec 38             	sub    $0x38,%esp
   326a1:	c7 45 f4 00 00 00 00 	movl   $0x0,-0xc(%ebp)
   326a8:	83 7d 08 02          	cmpl   $0x2,0x8(%ebp)
   326ac:	75 1b                	jne    326c9 <send_recv+0x2e>
   326ae:	c7 44 24 08 30 00 00 	movl   $0x30,0x8(%esp)
   326b5:	00 
   326b6:	c7 44 24 04 00 00 00 	movl   $0x0,0x4(%esp)
   326bd:	00 
   326be:	8b 45 10             	mov    0x10(%ebp),%eax
   326c1:	89 04 24             	mov    %eax,(%esp)
   326c4:	e8 96 e3 ff ff       	call   30a5f <memset>
   326c9:	8b 45 08             	mov    0x8(%ebp),%eax
   326cc:	83 f8 01             	cmp    $0x1,%eax
   326cf:	7c 6a                	jl     3273b <send_recv+0xa0>
   326d1:	83 f8 02             	cmp    $0x2,%eax
   326d4:	7e 47                	jle    3271d <send_recv+0x82>
   326d6:	83 f8 03             	cmp    $0x3,%eax
   326d9:	75 60                	jne    3273b <send_recv+0xa0>
   326db:	8b 45 10             	mov    0x10(%ebp),%eax
   326de:	89 44 24 08          	mov    %eax,0x8(%esp)
   326e2:	8b 45 0c             	mov    0xc(%ebp),%eax
   326e5:	89 44 24 04          	mov    %eax,0x4(%esp)
   326e9:	c7 04 24 01 00 00 00 	movl   $0x1,(%esp)
   326f0:	e8 37 fd ff ff       	call   3242c <sendrec>
   326f5:	89 45 f4             	mov    %eax,-0xc(%ebp)
   326f8:	83 7d f4 00          	cmpl   $0x0,-0xc(%ebp)
   326fc:	75 7e                	jne    3277c <send_recv+0xe1>
   326fe:	8b 45 10             	mov    0x10(%ebp),%eax
   32701:	89 44 24 08          	mov    %eax,0x8(%esp)
   32705:	8b 45 0c             	mov    0xc(%ebp),%eax
   32708:	89 44 24 04          	mov    %eax,0x4(%esp)
   3270c:	c7 04 24 02 00 00 00 	movl   $0x2,(%esp)
   32713:	e8 14 fd ff ff       	call   3242c <sendrec>
   32718:	89 45 f4             	mov    %eax,-0xc(%ebp)
   3271b:	eb 60                	jmp    3277d <send_recv+0xe2>
   3271d:	8b 45 10             	mov    0x10(%ebp),%eax
   32720:	89 44 24 08          	mov    %eax,0x8(%esp)
   32724:	8b 45 0c             	mov    0xc(%ebp),%eax
   32727:	89 44 24 04          	mov    %eax,0x4(%esp)
   3272b:	8b 45 08             	mov    0x8(%ebp),%eax
   3272e:	89 04 24             	mov    %eax,(%esp)
   32731:	e8 f6 fc ff ff       	call   3242c <sendrec>
   32736:	89 45 f4             	mov    %eax,-0xc(%ebp)
   32739:	eb 42                	jmp    3277d <send_recv+0xe2>
   3273b:	83 7d 08 03          	cmpl   $0x3,0x8(%ebp)
   3273f:	74 3c                	je     3277d <send_recv+0xe2>
   32741:	83 7d 08 01          	cmpl   $0x1,0x8(%ebp)
   32745:	74 36                	je     3277d <send_recv+0xe2>
   32747:	83 7d 08 02          	cmpl   $0x2,0x8(%ebp)
   3274b:	74 30                	je     3277d <send_recv+0xe2>
   3274d:	a1 40 79 06 00       	mov    0x67940,%eax
   32752:	89 44 24 10          	mov    %eax,0x10(%esp)
   32756:	c7 44 24 0c af 00 00 	movl   $0xaf,0xc(%esp)
   3275d:	00 
   3275e:	c7 44 24 08 04 5e 03 	movl   $0x35e04,0x8(%esp)
   32765:	00 
   32766:	c7 44 24 04 04 5e 03 	movl   $0x35e04,0x4(%esp)
   3276d:	00 
   3276e:	c7 04 24 d8 5e 03 00 	movl   $0x35ed8,(%esp)
   32775:	e8 ed 26 00 00       	call   34e67 <assertion_failure>
   3277a:	eb 01                	jmp    3277d <send_recv+0xe2>
   3277c:	90                   	nop
   3277d:	8b 45 f4             	mov    -0xc(%ebp),%eax
   32780:	c9                   	leave  
   32781:	c3                   	ret    

00032782 <ldt_seg_linear>:
   32782:	55                   	push   %ebp
   32783:	89 e5                	mov    %esp,%ebp
   32785:	83 ec 10             	sub    $0x10,%esp
   32788:	8b 45 08             	mov    0x8(%ebp),%eax
   3278b:	8d 50 4a             	lea    0x4a(%eax),%edx
   3278e:	8b 45 0c             	mov    0xc(%ebp),%eax
   32791:	c1 e0 03             	shl    $0x3,%eax
   32794:	8d 04 02             	lea    (%edx,%eax,1),%eax
   32797:	89 45 fc             	mov    %eax,-0x4(%ebp)
   3279a:	8b 45 fc             	mov    -0x4(%ebp),%eax
   3279d:	0f b6 40 07          	movzbl 0x7(%eax),%eax
   327a1:	0f b6 c0             	movzbl %al,%eax
   327a4:	89 c2                	mov    %eax,%edx
   327a6:	c1 e2 18             	shl    $0x18,%edx
   327a9:	8b 45 fc             	mov    -0x4(%ebp),%eax
   327ac:	0f b6 40 04          	movzbl 0x4(%eax),%eax
   327b0:	0f b6 c0             	movzbl %al,%eax
   327b3:	c1 e0 10             	shl    $0x10,%eax
   327b6:	09 c2                	or     %eax,%edx
   327b8:	8b 45 fc             	mov    -0x4(%ebp),%eax
   327bb:	0f b7 40 02          	movzwl 0x2(%eax),%eax
   327bf:	0f b7 c0             	movzwl %ax,%eax
   327c2:	09 d0                	or     %edx,%eax
   327c4:	c9                   	leave  
   327c5:	c3                   	ret    

000327c6 <va2la>:
   327c6:	55                   	push   %ebp
   327c7:	89 e5                	mov    %esp,%ebp
   327c9:	83 ec 38             	sub    $0x38,%esp
   327cc:	8b 45 08             	mov    0x8(%ebp),%eax
   327cf:	69 c0 a4 00 00 00    	imul   $0xa4,%eax,%eax
   327d5:	05 60 79 06 00       	add    $0x67960,%eax
   327da:	89 45 ec             	mov    %eax,-0x14(%ebp)
   327dd:	c7 44 24 04 01 00 00 	movl   $0x1,0x4(%esp)
   327e4:	00 
   327e5:	8b 45 ec             	mov    -0x14(%ebp),%eax
   327e8:	89 04 24             	mov    %eax,(%esp)
   327eb:	e8 92 ff ff ff       	call   32782 <ldt_seg_linear>
   327f0:	89 45 f0             	mov    %eax,-0x10(%ebp)
   327f3:	8b 45 0c             	mov    0xc(%ebp),%eax
   327f6:	03 45 f0             	add    -0x10(%ebp),%eax
   327f9:	89 45 f4             	mov    %eax,-0xc(%ebp)
   327fc:	83 7d 08 07          	cmpl   $0x7,0x8(%ebp)
   32800:	7f 35                	jg     32837 <va2la+0x71>
   32802:	8b 45 0c             	mov    0xc(%ebp),%eax
   32805:	3b 45 f4             	cmp    -0xc(%ebp),%eax
   32808:	74 2d                	je     32837 <va2la+0x71>
   3280a:	a1 40 79 06 00       	mov    0x67940,%eax
   3280f:	89 44 24 10          	mov    %eax,0x10(%esp)
   32813:	c7 44 24 0c dc 00 00 	movl   $0xdc,0xc(%esp)
   3281a:	00 
   3281b:	c7 44 24 08 04 5e 03 	movl   $0x35e04,0x8(%esp)
   32822:	00 
   32823:	c7 44 24 04 04 5e 03 	movl   $0x35e04,0x4(%esp)
   3282a:	00 
   3282b:	c7 04 24 1a 5f 03 00 	movl   $0x35f1a,(%esp)
   32832:	e8 30 26 00 00       	call   34e67 <assertion_failure>
   32837:	8b 45 f4             	mov    -0xc(%ebp),%eax
   3283a:	c9                   	leave  
   3283b:	c3                   	ret    

0003283c <reset_msg>:
   3283c:	55                   	push   %ebp
   3283d:	89 e5                	mov    %esp,%ebp
   3283f:	83 ec 18             	sub    $0x18,%esp
   32842:	c7 44 24 08 30 00 00 	movl   $0x30,0x8(%esp)
   32849:	00 
   3284a:	c7 44 24 04 00 00 00 	movl   $0x0,0x4(%esp)
   32851:	00 
   32852:	8b 45 08             	mov    0x8(%ebp),%eax
   32855:	89 04 24             	mov    %eax,(%esp)
   32858:	e8 02 e2 ff ff       	call   30a5f <memset>
   3285d:	c9                   	leave  
   3285e:	c3                   	ret    

0003285f <block>:
   3285f:	55                   	push   %ebp
   32860:	89 e5                	mov    %esp,%ebp
   32862:	83 ec 28             	sub    $0x28,%esp
   32865:	8b 45 08             	mov    0x8(%ebp),%eax
   32868:	8b 40 78             	mov    0x78(%eax),%eax
   3286b:	85 c0                	test   %eax,%eax
   3286d:	75 2d                	jne    3289c <block+0x3d>
   3286f:	a1 40 79 06 00       	mov    0x67940,%eax
   32874:	89 44 24 10          	mov    %eax,0x10(%esp)
   32878:	c7 44 24 0c fd 00 00 	movl   $0xfd,0xc(%esp)
   3287f:	00 
   32880:	c7 44 24 08 04 5e 03 	movl   $0x35e04,0x8(%esp)
   32887:	00 
   32888:	c7 44 24 04 04 5e 03 	movl   $0x35e04,0x4(%esp)
   3288f:	00 
   32890:	c7 04 24 28 5f 03 00 	movl   $0x35f28,(%esp)
   32897:	e8 cb 25 00 00       	call   34e67 <assertion_failure>
   3289c:	e8 a9 fb ff ff       	call   3244a <schedule>
   328a1:	c9                   	leave  
   328a2:	c3                   	ret    

000328a3 <unblock>:
   328a3:	55                   	push   %ebp
   328a4:	89 e5                	mov    %esp,%ebp
   328a6:	83 ec 28             	sub    $0x28,%esp
   328a9:	8b 45 08             	mov    0x8(%ebp),%eax
   328ac:	8b 40 78             	mov    0x78(%eax),%eax
   328af:	85 c0                	test   %eax,%eax
   328b1:	74 2d                	je     328e0 <unblock+0x3d>
   328b3:	a1 40 79 06 00       	mov    0x67940,%eax
   328b8:	89 44 24 10          	mov    %eax,0x10(%esp)
   328bc:	c7 44 24 0c 0c 01 00 	movl   $0x10c,0xc(%esp)
   328c3:	00 
   328c4:	c7 44 24 08 04 5e 03 	movl   $0x35e04,0x8(%esp)
   328cb:	00 
   328cc:	c7 44 24 04 04 5e 03 	movl   $0x35e04,0x4(%esp)
   328d3:	00 
   328d4:	c7 04 24 33 5f 03 00 	movl   $0x35f33,(%esp)
   328db:	e8 87 25 00 00       	call   34e67 <assertion_failure>
   328e0:	e8 65 fb ff ff       	call   3244a <schedule>
   328e5:	c9                   	leave  
   328e6:	c3                   	ret    

000328e7 <deadlock>:
   328e7:	55                   	push   %ebp
   328e8:	89 e5                	mov    %esp,%ebp
   328ea:	83 ec 38             	sub    $0x38,%esp
   328ed:	8b 45 0c             	mov    0xc(%ebp),%eax
   328f0:	69 c0 a4 00 00 00    	imul   $0xa4,%eax,%eax
   328f6:	05 60 79 06 00       	add    $0x67960,%eax
   328fb:	89 45 f4             	mov    %eax,-0xc(%ebp)
   328fe:	8b 45 08             	mov    0x8(%ebp),%eax
   32901:	69 c0 a4 00 00 00    	imul   $0xa4,%eax,%eax
   32907:	05 60 79 06 00       	add    $0x67960,%eax
   3290c:	8b 40 78             	mov    0x78(%eax),%eax
   3290f:	83 e0 02             	and    $0x2,%eax
   32912:	85 c0                	test   %eax,%eax
   32914:	0f 84 f4 00 00 00    	je     32a0e <deadlock+0x127>
   3291a:	8b 45 f4             	mov    -0xc(%ebp),%eax
   3291d:	8b 40 78             	mov    0x78(%eax),%eax
   32920:	83 e0 02             	and    $0x2,%eax
   32923:	85 c0                	test   %eax,%eax
   32925:	0f 84 e2 00 00 00    	je     32a0d <deadlock+0x126>
   3292b:	8b 45 f4             	mov    -0xc(%ebp),%eax
   3292e:	8b 80 84 00 00 00    	mov    0x84(%eax),%eax
   32934:	3b 45 08             	cmp    0x8(%ebp),%eax
   32937:	0f 85 b4 00 00 00    	jne    329f1 <deadlock+0x10a>
   3293d:	8b 45 0c             	mov    0xc(%ebp),%eax
   32940:	69 c0 a4 00 00 00    	imul   $0xa4,%eax,%eax
   32946:	05 60 79 06 00       	add    $0x67960,%eax
   3294b:	89 45 f4             	mov    %eax,-0xc(%ebp)
   3294e:	8b 45 f4             	mov    -0xc(%ebp),%eax
   32951:	83 c0 68             	add    $0x68,%eax
   32954:	89 44 24 04          	mov    %eax,0x4(%esp)
   32958:	c7 04 24 43 5f 03 00 	movl   $0x35f43,(%esp)
   3295f:	e8 30 20 00 00       	call   34994 <printf>
   32964:	8b 45 f4             	mov    -0xc(%ebp),%eax
   32967:	8b 40 7c             	mov    0x7c(%eax),%eax
   3296a:	85 c0                	test   %eax,%eax
   3296c:	75 2d                	jne    3299b <deadlock+0xb4>
   3296e:	a1 40 79 06 00       	mov    0x67940,%eax
   32973:	89 44 24 10          	mov    %eax,0x10(%esp)
   32977:	c7 44 24 0c 2e 01 00 	movl   $0x12e,0xc(%esp)
   3297e:	00 
   3297f:	c7 44 24 08 04 5e 03 	movl   $0x35e04,0x8(%esp)
   32986:	00 
   32987:	c7 44 24 04 04 5e 03 	movl   $0x35e04,0x4(%esp)
   3298e:	00 
   3298f:	c7 04 24 4e 5f 03 00 	movl   $0x35f4e,(%esp)
   32996:	e8 cc 24 00 00       	call   34e67 <assertion_failure>
   3299b:	8b 45 f4             	mov    -0xc(%ebp),%eax
   3299e:	8b 80 84 00 00 00    	mov    0x84(%eax),%eax
   329a4:	69 c0 a4 00 00 00    	imul   $0xa4,%eax,%eax
   329aa:	05 60 79 06 00       	add    $0x67960,%eax
   329af:	89 45 f4             	mov    %eax,-0xc(%ebp)
   329b2:	8b 45 f4             	mov    -0xc(%ebp),%eax
   329b5:	83 c0 68             	add    $0x68,%eax
   329b8:	89 44 24 04          	mov    %eax,0x4(%esp)
   329bc:	c7 04 24 57 5f 03 00 	movl   $0x35f57,(%esp)
   329c3:	e8 cc 1f 00 00       	call   34994 <printf>
   329c8:	8b 45 08             	mov    0x8(%ebp),%eax
   329cb:	69 c0 a4 00 00 00    	imul   $0xa4,%eax,%eax
   329d1:	05 60 79 06 00       	add    $0x67960,%eax
   329d6:	3b 45 f4             	cmp    -0xc(%ebp),%eax
   329d9:	75 89                	jne    32964 <deadlock+0x7d>
   329db:	c7 04 24 5c 5f 03 00 	movl   $0x35f5c,(%esp)
   329e2:	e8 ad 1f 00 00       	call   34994 <printf>
   329e7:	b8 01 00 00 00       	mov    $0x1,%eax
   329ec:	e9 05 01 00 00       	jmp    32af6 <deadlock+0x20f>
   329f1:	8b 45 f4             	mov    -0xc(%ebp),%eax
   329f4:	8b 80 84 00 00 00    	mov    0x84(%eax),%eax
   329fa:	69 c0 a4 00 00 00    	imul   $0xa4,%eax,%eax
   32a00:	05 60 79 06 00       	add    $0x67960,%eax
   32a05:	89 45 f4             	mov    %eax,-0xc(%ebp)
   32a08:	e9 0d ff ff ff       	jmp    3291a <deadlock+0x33>
   32a0d:	90                   	nop
   32a0e:	8b 45 08             	mov    0x8(%ebp),%eax
   32a11:	69 c0 a4 00 00 00    	imul   $0xa4,%eax,%eax
   32a17:	05 60 79 06 00       	add    $0x67960,%eax
   32a1c:	8b 40 78             	mov    0x78(%eax),%eax
   32a1f:	83 e0 04             	and    $0x4,%eax
   32a22:	85 c0                	test   %eax,%eax
   32a24:	0f 84 c7 00 00 00    	je     32af1 <deadlock+0x20a>
   32a2a:	8b 45 0c             	mov    0xc(%ebp),%eax
   32a2d:	69 c0 a4 00 00 00    	imul   $0xa4,%eax,%eax
   32a33:	05 60 79 06 00       	add    $0x67960,%eax
   32a38:	89 45 f4             	mov    %eax,-0xc(%ebp)
   32a3b:	8b 45 f4             	mov    -0xc(%ebp),%eax
   32a3e:	8b 40 78             	mov    0x78(%eax),%eax
   32a41:	83 e0 04             	and    $0x4,%eax
   32a44:	85 c0                	test   %eax,%eax
   32a46:	0f 84 a4 00 00 00    	je     32af0 <deadlock+0x209>
   32a4c:	8b 45 f4             	mov    -0xc(%ebp),%eax
   32a4f:	8b 80 80 00 00 00    	mov    0x80(%eax),%eax
   32a55:	3b 45 08             	cmp    0x8(%ebp),%eax
   32a58:	75 7a                	jne    32ad4 <deadlock+0x1ed>
   32a5a:	8b 45 0c             	mov    0xc(%ebp),%eax
   32a5d:	69 c0 a4 00 00 00    	imul   $0xa4,%eax,%eax
   32a63:	05 60 79 06 00       	add    $0x67960,%eax
   32a68:	89 45 f4             	mov    %eax,-0xc(%ebp)
   32a6b:	8b 45 f4             	mov    -0xc(%ebp),%eax
   32a6e:	83 c0 68             	add    $0x68,%eax
   32a71:	89 44 24 04          	mov    %eax,0x4(%esp)
   32a75:	c7 04 24 60 5f 03 00 	movl   $0x35f60,(%esp)
   32a7c:	e8 13 1f 00 00       	call   34994 <printf>
   32a81:	8b 45 f4             	mov    -0xc(%ebp),%eax
   32a84:	8b 80 80 00 00 00    	mov    0x80(%eax),%eax
   32a8a:	69 c0 a4 00 00 00    	imul   $0xa4,%eax,%eax
   32a90:	05 60 79 06 00       	add    $0x67960,%eax
   32a95:	89 45 f4             	mov    %eax,-0xc(%ebp)
   32a98:	8b 45 f4             	mov    -0xc(%ebp),%eax
   32a9b:	83 c0 68             	add    $0x68,%eax
   32a9e:	89 44 24 04          	mov    %eax,0x4(%esp)
   32aa2:	c7 04 24 57 5f 03 00 	movl   $0x35f57,(%esp)
   32aa9:	e8 e6 1e 00 00       	call   34994 <printf>
   32aae:	8b 45 08             	mov    0x8(%ebp),%eax
   32ab1:	69 c0 a4 00 00 00    	imul   $0xa4,%eax,%eax
   32ab7:	05 60 79 06 00       	add    $0x67960,%eax
   32abc:	3b 45 f4             	cmp    -0xc(%ebp),%eax
   32abf:	75 c0                	jne    32a81 <deadlock+0x19a>
   32ac1:	c7 04 24 5c 5f 03 00 	movl   $0x35f5c,(%esp)
   32ac8:	e8 c7 1e 00 00       	call   34994 <printf>
   32acd:	b8 01 00 00 00       	mov    $0x1,%eax
   32ad2:	eb 22                	jmp    32af6 <deadlock+0x20f>
   32ad4:	8b 45 f4             	mov    -0xc(%ebp),%eax
   32ad7:	8b 80 80 00 00 00    	mov    0x80(%eax),%eax
   32add:	69 c0 a4 00 00 00    	imul   $0xa4,%eax,%eax
   32ae3:	05 60 79 06 00       	add    $0x67960,%eax
   32ae8:	89 45 f4             	mov    %eax,-0xc(%ebp)
   32aeb:	e9 4b ff ff ff       	jmp    32a3b <deadlock+0x154>
   32af0:	90                   	nop
   32af1:	b8 00 00 00 00       	mov    $0x0,%eax
   32af6:	c9                   	leave  
   32af7:	c3                   	ret    

00032af8 <msg_send>:
   32af8:	55                   	push   %ebp
   32af9:	89 e5                	mov    %esp,%ebp
   32afb:	53                   	push   %ebx
   32afc:	83 ec 34             	sub    $0x34,%esp
   32aff:	8b 45 08             	mov    0x8(%ebp),%eax
   32b02:	89 45 ec             	mov    %eax,-0x14(%ebp)
   32b05:	8b 45 0c             	mov    0xc(%ebp),%eax
   32b08:	69 c0 a4 00 00 00    	imul   $0xa4,%eax,%eax
   32b0e:	05 60 79 06 00       	add    $0x67960,%eax
   32b13:	89 45 f0             	mov    %eax,-0x10(%ebp)
   32b16:	8b 55 ec             	mov    -0x14(%ebp),%edx
   32b19:	b8 60 79 06 00       	mov    $0x67960,%eax
   32b1e:	89 d1                	mov    %edx,%ecx
   32b20:	29 c1                	sub    %eax,%ecx
   32b22:	89 c8                	mov    %ecx,%eax
   32b24:	c1 f8 02             	sar    $0x2,%eax
   32b27:	69 c0 19 9c 8f c1    	imul   $0xc18f9c19,%eax,%eax
   32b2d:	3b 45 0c             	cmp    0xc(%ebp),%eax
   32b30:	75 2d                	jne    32b5f <msg_send+0x67>
   32b32:	a1 40 79 06 00       	mov    0x67940,%eax
   32b37:	89 44 24 10          	mov    %eax,0x10(%esp)
   32b3b:	c7 44 24 0c 6f 01 00 	movl   $0x16f,0xc(%esp)
   32b42:	00 
   32b43:	c7 44 24 08 04 5e 03 	movl   $0x35e04,0x8(%esp)
   32b4a:	00 
   32b4b:	c7 44 24 04 04 5e 03 	movl   $0x35e04,0x4(%esp)
   32b52:	00 
   32b53:	c7 04 24 6e 5f 03 00 	movl   $0x35f6e,(%esp)
   32b5a:	e8 08 23 00 00       	call   34e67 <assertion_failure>
   32b5f:	8b 55 ec             	mov    -0x14(%ebp),%edx
   32b62:	b8 60 79 06 00       	mov    $0x67960,%eax
   32b67:	89 d3                	mov    %edx,%ebx
   32b69:	29 c3                	sub    %eax,%ebx
   32b6b:	89 d8                	mov    %ebx,%eax
   32b6d:	c1 f8 02             	sar    $0x2,%eax
   32b70:	69 c0 19 9c 8f c1    	imul   $0xc18f9c19,%eax,%eax
   32b76:	8b 55 0c             	mov    0xc(%ebp),%edx
   32b79:	89 54 24 04          	mov    %edx,0x4(%esp)
   32b7d:	89 04 24             	mov    %eax,(%esp)
   32b80:	e8 62 fd ff ff       	call   328e7 <deadlock>
   32b85:	85 c0                	test   %eax,%eax
   32b87:	74 20                	je     32ba9 <msg_send+0xb1>
   32b89:	8b 45 f0             	mov    -0x10(%ebp),%eax
   32b8c:	8d 50 68             	lea    0x68(%eax),%edx
   32b8f:	8b 45 ec             	mov    -0x14(%ebp),%eax
   32b92:	83 c0 68             	add    $0x68,%eax
   32b95:	89 54 24 08          	mov    %edx,0x8(%esp)
   32b99:	89 44 24 04          	mov    %eax,0x4(%esp)
   32b9d:	c7 04 24 87 5f 03 00 	movl   $0x35f87,(%esp)
   32ba4:	e8 df f4 ff ff       	call   32088 <panic>
   32ba9:	8b 45 f0             	mov    -0x10(%ebp),%eax
   32bac:	8b 40 78             	mov    0x78(%eax),%eax
   32baf:	83 e0 04             	and    $0x4,%eax
   32bb2:	85 c0                	test   %eax,%eax
   32bb4:	0f 84 f5 02 00 00    	je     32eaf <msg_send+0x3b7>
   32bba:	8b 45 f0             	mov    -0x10(%ebp),%eax
   32bbd:	8b 90 80 00 00 00    	mov    0x80(%eax),%edx
   32bc3:	8b 4d ec             	mov    -0x14(%ebp),%ecx
   32bc6:	b8 60 79 06 00       	mov    $0x67960,%eax
   32bcb:	89 cb                	mov    %ecx,%ebx
   32bcd:	29 c3                	sub    %eax,%ebx
   32bcf:	89 d8                	mov    %ebx,%eax
   32bd1:	c1 f8 02             	sar    $0x2,%eax
   32bd4:	69 c0 19 9c 8f c1    	imul   $0xc18f9c19,%eax,%eax
   32bda:	39 c2                	cmp    %eax,%edx
   32bdc:	74 12                	je     32bf0 <msg_send+0xf8>
   32bde:	8b 45 f0             	mov    -0x10(%ebp),%eax
   32be1:	8b 80 80 00 00 00    	mov    0x80(%eax),%eax
   32be7:	83 f8 12             	cmp    $0x12,%eax
   32bea:	0f 85 bf 02 00 00    	jne    32eaf <msg_send+0x3b7>
   32bf0:	8b 45 f0             	mov    -0x10(%ebp),%eax
   32bf3:	8b 40 7c             	mov    0x7c(%eax),%eax
   32bf6:	85 c0                	test   %eax,%eax
   32bf8:	75 2d                	jne    32c27 <msg_send+0x12f>
   32bfa:	a1 40 79 06 00       	mov    0x67940,%eax
   32bff:	89 44 24 10          	mov    %eax,0x10(%esp)
   32c03:	c7 44 24 0c 79 01 00 	movl   $0x179,0xc(%esp)
   32c0a:	00 
   32c0b:	c7 44 24 08 04 5e 03 	movl   $0x35e04,0x8(%esp)
   32c12:	00 
   32c13:	c7 44 24 04 04 5e 03 	movl   $0x35e04,0x4(%esp)
   32c1a:	00 
   32c1b:	c7 04 24 9b 5f 03 00 	movl   $0x35f9b,(%esp)
   32c22:	e8 40 22 00 00       	call   34e67 <assertion_failure>
   32c27:	83 7d 10 00          	cmpl   $0x0,0x10(%ebp)
   32c2b:	75 2d                	jne    32c5a <msg_send+0x162>
   32c2d:	a1 40 79 06 00       	mov    0x67940,%eax
   32c32:	89 44 24 10          	mov    %eax,0x10(%esp)
   32c36:	c7 44 24 0c 7a 01 00 	movl   $0x17a,0xc(%esp)
   32c3d:	00 
   32c3e:	c7 44 24 08 04 5e 03 	movl   $0x35e04,0x8(%esp)
   32c45:	00 
   32c46:	c7 44 24 04 04 5e 03 	movl   $0x35e04,0x4(%esp)
   32c4d:	00 
   32c4e:	c7 04 24 a9 5f 03 00 	movl   $0x35fa9,(%esp)
   32c55:	e8 0d 22 00 00       	call   34e67 <assertion_failure>
   32c5a:	8b 55 ec             	mov    -0x14(%ebp),%edx
   32c5d:	b8 60 79 06 00       	mov    $0x67960,%eax
   32c62:	89 d1                	mov    %edx,%ecx
   32c64:	29 c1                	sub    %eax,%ecx
   32c66:	89 c8                	mov    %ecx,%eax
   32c68:	c1 f8 02             	sar    $0x2,%eax
   32c6b:	69 c0 19 9c 8f c1    	imul   $0xc18f9c19,%eax,%eax
   32c71:	8b 55 10             	mov    0x10(%ebp),%edx
   32c74:	89 54 24 04          	mov    %edx,0x4(%esp)
   32c78:	89 04 24             	mov    %eax,(%esp)
   32c7b:	e8 46 fb ff ff       	call   327c6 <va2la>
   32c80:	89 c3                	mov    %eax,%ebx
   32c82:	8b 45 f0             	mov    -0x10(%ebp),%eax
   32c85:	8b 40 7c             	mov    0x7c(%eax),%eax
   32c88:	89 44 24 04          	mov    %eax,0x4(%esp)
   32c8c:	8b 45 0c             	mov    0xc(%ebp),%eax
   32c8f:	89 04 24             	mov    %eax,(%esp)
   32c92:	e8 2f fb ff ff       	call   327c6 <va2la>
   32c97:	c7 44 24 08 30 00 00 	movl   $0x30,0x8(%esp)
   32c9e:	00 
   32c9f:	89 5c 24 04          	mov    %ebx,0x4(%esp)
   32ca3:	89 04 24             	mov    %eax,(%esp)
   32ca6:	e8 85 dd ff ff       	call   30a30 <memcpy>
   32cab:	8b 45 f0             	mov    -0x10(%ebp),%eax
   32cae:	c7 40 7c 00 00 00 00 	movl   $0x0,0x7c(%eax)
   32cb5:	8b 45 f0             	mov    -0x10(%ebp),%eax
   32cb8:	8b 40 78             	mov    0x78(%eax),%eax
   32cbb:	89 c2                	mov    %eax,%edx
   32cbd:	83 e2 fb             	and    $0xfffffffb,%edx
   32cc0:	8b 45 f0             	mov    -0x10(%ebp),%eax
   32cc3:	89 50 78             	mov    %edx,0x78(%eax)
   32cc6:	8b 45 f0             	mov    -0x10(%ebp),%eax
   32cc9:	c7 80 80 00 00 00 1c 	movl   $0x1c,0x80(%eax)
   32cd0:	00 00 00 
   32cd3:	8b 45 f0             	mov    -0x10(%ebp),%eax
   32cd6:	89 04 24             	mov    %eax,(%esp)
   32cd9:	e8 c5 fb ff ff       	call   328a3 <unblock>
   32cde:	8b 45 f0             	mov    -0x10(%ebp),%eax
   32ce1:	8b 40 78             	mov    0x78(%eax),%eax
   32ce4:	85 c0                	test   %eax,%eax
   32ce6:	74 2d                	je     32d15 <msg_send+0x21d>
   32ce8:	a1 40 79 06 00       	mov    0x67940,%eax
   32ced:	89 44 24 10          	mov    %eax,0x10(%esp)
   32cf1:	c7 44 24 0c 84 01 00 	movl   $0x184,0xc(%esp)
   32cf8:	00 
   32cf9:	c7 44 24 08 04 5e 03 	movl   $0x35e04,0x8(%esp)
   32d00:	00 
   32d01:	c7 44 24 04 04 5e 03 	movl   $0x35e04,0x4(%esp)
   32d08:	00 
   32d09:	c7 04 24 ab 5f 03 00 	movl   $0x35fab,(%esp)
   32d10:	e8 52 21 00 00       	call   34e67 <assertion_failure>
   32d15:	8b 45 f0             	mov    -0x10(%ebp),%eax
   32d18:	8b 40 7c             	mov    0x7c(%eax),%eax
   32d1b:	85 c0                	test   %eax,%eax
   32d1d:	74 2d                	je     32d4c <msg_send+0x254>
   32d1f:	a1 40 79 06 00       	mov    0x67940,%eax
   32d24:	89 44 24 10          	mov    %eax,0x10(%esp)
   32d28:	c7 44 24 0c 85 01 00 	movl   $0x185,0xc(%esp)
   32d2f:	00 
   32d30:	c7 44 24 08 04 5e 03 	movl   $0x35e04,0x8(%esp)
   32d37:	00 
   32d38:	c7 44 24 04 04 5e 03 	movl   $0x35e04,0x4(%esp)
   32d3f:	00 
   32d40:	c7 04 24 c0 5f 03 00 	movl   $0x35fc0,(%esp)
   32d47:	e8 1b 21 00 00       	call   34e67 <assertion_failure>
   32d4c:	8b 45 f0             	mov    -0x10(%ebp),%eax
   32d4f:	8b 80 80 00 00 00    	mov    0x80(%eax),%eax
   32d55:	83 f8 1c             	cmp    $0x1c,%eax
   32d58:	74 2d                	je     32d87 <msg_send+0x28f>
   32d5a:	a1 40 79 06 00       	mov    0x67940,%eax
   32d5f:	89 44 24 10          	mov    %eax,0x10(%esp)
   32d63:	c7 44 24 0c 86 01 00 	movl   $0x186,0xc(%esp)
   32d6a:	00 
   32d6b:	c7 44 24 08 04 5e 03 	movl   $0x35e04,0x8(%esp)
   32d72:	00 
   32d73:	c7 44 24 04 04 5e 03 	movl   $0x35e04,0x4(%esp)
   32d7a:	00 
   32d7b:	c7 04 24 d3 5f 03 00 	movl   $0x35fd3,(%esp)
   32d82:	e8 e0 20 00 00       	call   34e67 <assertion_failure>
   32d87:	8b 45 f0             	mov    -0x10(%ebp),%eax
   32d8a:	8b 80 84 00 00 00    	mov    0x84(%eax),%eax
   32d90:	83 f8 1c             	cmp    $0x1c,%eax
   32d93:	74 2d                	je     32dc2 <msg_send+0x2ca>
   32d95:	a1 40 79 06 00       	mov    0x67940,%eax
   32d9a:	89 44 24 10          	mov    %eax,0x10(%esp)
   32d9e:	c7 44 24 0c 87 01 00 	movl   $0x187,0xc(%esp)
   32da5:	00 
   32da6:	c7 44 24 08 04 5e 03 	movl   $0x35e04,0x8(%esp)
   32dad:	00 
   32dae:	c7 44 24 04 04 5e 03 	movl   $0x35e04,0x4(%esp)
   32db5:	00 
   32db6:	c7 04 24 f1 5f 03 00 	movl   $0x35ff1,(%esp)
   32dbd:	e8 a5 20 00 00       	call   34e67 <assertion_failure>
   32dc2:	8b 45 ec             	mov    -0x14(%ebp),%eax
   32dc5:	8b 40 78             	mov    0x78(%eax),%eax
   32dc8:	85 c0                	test   %eax,%eax
   32dca:	74 2d                	je     32df9 <msg_send+0x301>
   32dcc:	a1 40 79 06 00       	mov    0x67940,%eax
   32dd1:	89 44 24 10          	mov    %eax,0x10(%esp)
   32dd5:	c7 44 24 0c 88 01 00 	movl   $0x188,0xc(%esp)
   32ddc:	00 
   32ddd:	c7 44 24 08 04 5e 03 	movl   $0x35e04,0x8(%esp)
   32de4:	00 
   32de5:	c7 44 24 04 04 5e 03 	movl   $0x35e04,0x4(%esp)
   32dec:	00 
   32ded:	c7 04 24 0d 60 03 00 	movl   $0x3600d,(%esp)
   32df4:	e8 6e 20 00 00       	call   34e67 <assertion_failure>
   32df9:	8b 45 ec             	mov    -0x14(%ebp),%eax
   32dfc:	8b 40 7c             	mov    0x7c(%eax),%eax
   32dff:	85 c0                	test   %eax,%eax
   32e01:	74 2d                	je     32e30 <msg_send+0x338>
   32e03:	a1 40 79 06 00       	mov    0x67940,%eax
   32e08:	89 44 24 10          	mov    %eax,0x10(%esp)
   32e0c:	c7 44 24 0c 89 01 00 	movl   $0x189,0xc(%esp)
   32e13:	00 
   32e14:	c7 44 24 08 04 5e 03 	movl   $0x35e04,0x8(%esp)
   32e1b:	00 
   32e1c:	c7 44 24 04 04 5e 03 	movl   $0x35e04,0x4(%esp)
   32e23:	00 
   32e24:	c7 04 24 22 60 03 00 	movl   $0x36022,(%esp)
   32e2b:	e8 37 20 00 00       	call   34e67 <assertion_failure>
   32e30:	8b 45 ec             	mov    -0x14(%ebp),%eax
   32e33:	8b 80 80 00 00 00    	mov    0x80(%eax),%eax
   32e39:	83 f8 1c             	cmp    $0x1c,%eax
   32e3c:	74 2d                	je     32e6b <msg_send+0x373>
   32e3e:	a1 40 79 06 00       	mov    0x67940,%eax
   32e43:	89 44 24 10          	mov    %eax,0x10(%esp)
   32e47:	c7 44 24 0c 8a 01 00 	movl   $0x18a,0xc(%esp)
   32e4e:	00 
   32e4f:	c7 44 24 08 04 5e 03 	movl   $0x35e04,0x8(%esp)
   32e56:	00 
   32e57:	c7 44 24 04 04 5e 03 	movl   $0x35e04,0x4(%esp)
   32e5e:	00 
   32e5f:	c7 04 24 35 60 03 00 	movl   $0x36035,(%esp)
   32e66:	e8 fc 1f 00 00       	call   34e67 <assertion_failure>
   32e6b:	8b 45 ec             	mov    -0x14(%ebp),%eax
   32e6e:	8b 80 84 00 00 00    	mov    0x84(%eax),%eax
   32e74:	83 f8 1c             	cmp    $0x1c,%eax
   32e77:	0f 84 dd 01 00 00    	je     3305a <msg_send+0x562>
   32e7d:	a1 40 79 06 00       	mov    0x67940,%eax
   32e82:	89 44 24 10          	mov    %eax,0x10(%esp)
   32e86:	c7 44 24 0c 8b 01 00 	movl   $0x18b,0xc(%esp)
   32e8d:	00 
   32e8e:	c7 44 24 08 04 5e 03 	movl   $0x35e04,0x8(%esp)
   32e95:	00 
   32e96:	c7 44 24 04 04 5e 03 	movl   $0x35e04,0x4(%esp)
   32e9d:	00 
   32e9e:	c7 04 24 53 60 03 00 	movl   $0x36053,(%esp)
   32ea5:	e8 bd 1f 00 00       	call   34e67 <assertion_failure>
   32eaa:	e9 ac 01 00 00       	jmp    3305b <msg_send+0x563>
   32eaf:	8b 45 ec             	mov    -0x14(%ebp),%eax
   32eb2:	8b 40 78             	mov    0x78(%eax),%eax
   32eb5:	89 c2                	mov    %eax,%edx
   32eb7:	83 ca 02             	or     $0x2,%edx
   32eba:	8b 45 ec             	mov    -0x14(%ebp),%eax
   32ebd:	89 50 78             	mov    %edx,0x78(%eax)
   32ec0:	8b 45 ec             	mov    -0x14(%ebp),%eax
   32ec3:	8b 40 78             	mov    0x78(%eax),%eax
   32ec6:	83 f8 02             	cmp    $0x2,%eax
   32ec9:	74 2d                	je     32ef8 <msg_send+0x400>
   32ecb:	a1 40 79 06 00       	mov    0x67940,%eax
   32ed0:	89 44 24 10          	mov    %eax,0x10(%esp)
   32ed4:	c7 44 24 0c 8f 01 00 	movl   $0x18f,0xc(%esp)
   32edb:	00 
   32edc:	c7 44 24 08 04 5e 03 	movl   $0x35e04,0x8(%esp)
   32ee3:	00 
   32ee4:	c7 44 24 04 04 5e 03 	movl   $0x35e04,0x4(%esp)
   32eeb:	00 
   32eec:	c7 04 24 6f 60 03 00 	movl   $0x3606f,(%esp)
   32ef3:	e8 6f 1f 00 00       	call   34e67 <assertion_failure>
   32ef8:	8b 45 ec             	mov    -0x14(%ebp),%eax
   32efb:	8b 55 0c             	mov    0xc(%ebp),%edx
   32efe:	89 90 84 00 00 00    	mov    %edx,0x84(%eax)
   32f04:	8b 45 ec             	mov    -0x14(%ebp),%eax
   32f07:	8b 55 10             	mov    0x10(%ebp),%edx
   32f0a:	89 50 7c             	mov    %edx,0x7c(%eax)
   32f0d:	8b 45 f0             	mov    -0x10(%ebp),%eax
   32f10:	8b 80 8c 00 00 00    	mov    0x8c(%eax),%eax
   32f16:	85 c0                	test   %eax,%eax
   32f18:	74 35                	je     32f4f <msg_send+0x457>
   32f1a:	8b 45 f0             	mov    -0x10(%ebp),%eax
   32f1d:	8b 80 8c 00 00 00    	mov    0x8c(%eax),%eax
   32f23:	89 45 f4             	mov    %eax,-0xc(%ebp)
   32f26:	eb 0c                	jmp    32f34 <msg_send+0x43c>
   32f28:	8b 45 f4             	mov    -0xc(%ebp),%eax
   32f2b:	8b 80 90 00 00 00    	mov    0x90(%eax),%eax
   32f31:	89 45 f4             	mov    %eax,-0xc(%ebp)
   32f34:	8b 45 f4             	mov    -0xc(%ebp),%eax
   32f37:	8b 80 90 00 00 00    	mov    0x90(%eax),%eax
   32f3d:	85 c0                	test   %eax,%eax
   32f3f:	75 e7                	jne    32f28 <msg_send+0x430>
   32f41:	8b 45 f4             	mov    -0xc(%ebp),%eax
   32f44:	8b 55 ec             	mov    -0x14(%ebp),%edx
   32f47:	89 90 90 00 00 00    	mov    %edx,0x90(%eax)
   32f4d:	eb 0c                	jmp    32f5b <msg_send+0x463>
   32f4f:	8b 45 f0             	mov    -0x10(%ebp),%eax
   32f52:	8b 55 ec             	mov    -0x14(%ebp),%edx
   32f55:	89 90 8c 00 00 00    	mov    %edx,0x8c(%eax)
   32f5b:	8b 45 ec             	mov    -0x14(%ebp),%eax
   32f5e:	c7 80 90 00 00 00 00 	movl   $0x0,0x90(%eax)
   32f65:	00 00 00 
   32f68:	8b 45 ec             	mov    -0x14(%ebp),%eax
   32f6b:	89 04 24             	mov    %eax,(%esp)
   32f6e:	e8 ec f8 ff ff       	call   3285f <block>
   32f73:	8b 45 ec             	mov    -0x14(%ebp),%eax
   32f76:	8b 40 78             	mov    0x78(%eax),%eax
   32f79:	83 f8 02             	cmp    $0x2,%eax
   32f7c:	74 2d                	je     32fab <msg_send+0x4b3>
   32f7e:	a1 40 79 06 00       	mov    0x67940,%eax
   32f83:	89 44 24 10          	mov    %eax,0x10(%esp)
   32f87:	c7 44 24 0c a2 01 00 	movl   $0x1a2,0xc(%esp)
   32f8e:	00 
   32f8f:	c7 44 24 08 04 5e 03 	movl   $0x35e04,0x8(%esp)
   32f96:	00 
   32f97:	c7 44 24 04 04 5e 03 	movl   $0x35e04,0x4(%esp)
   32f9e:	00 
   32f9f:	c7 04 24 6f 60 03 00 	movl   $0x3606f,(%esp)
   32fa6:	e8 bc 1e 00 00       	call   34e67 <assertion_failure>
   32fab:	8b 45 ec             	mov    -0x14(%ebp),%eax
   32fae:	8b 40 7c             	mov    0x7c(%eax),%eax
   32fb1:	85 c0                	test   %eax,%eax
   32fb3:	75 2d                	jne    32fe2 <msg_send+0x4ea>
   32fb5:	a1 40 79 06 00       	mov    0x67940,%eax
   32fba:	89 44 24 10          	mov    %eax,0x10(%esp)
   32fbe:	c7 44 24 0c a3 01 00 	movl   $0x1a3,0xc(%esp)
   32fc5:	00 
   32fc6:	c7 44 24 08 04 5e 03 	movl   $0x35e04,0x8(%esp)
   32fcd:	00 
   32fce:	c7 44 24 04 04 5e 03 	movl   $0x35e04,0x4(%esp)
   32fd5:	00 
   32fd6:	c7 04 24 8a 60 03 00 	movl   $0x3608a,(%esp)
   32fdd:	e8 85 1e 00 00       	call   34e67 <assertion_failure>
   32fe2:	8b 45 ec             	mov    -0x14(%ebp),%eax
   32fe5:	8b 80 80 00 00 00    	mov    0x80(%eax),%eax
   32feb:	83 f8 1c             	cmp    $0x1c,%eax
   32fee:	74 2d                	je     3301d <msg_send+0x525>
   32ff0:	a1 40 79 06 00       	mov    0x67940,%eax
   32ff5:	89 44 24 10          	mov    %eax,0x10(%esp)
   32ff9:	c7 44 24 0c a4 01 00 	movl   $0x1a4,0xc(%esp)
   33000:	00 
   33001:	c7 44 24 08 04 5e 03 	movl   $0x35e04,0x8(%esp)
   33008:	00 
   33009:	c7 44 24 04 04 5e 03 	movl   $0x35e04,0x4(%esp)
   33010:	00 
   33011:	c7 04 24 35 60 03 00 	movl   $0x36035,(%esp)
   33018:	e8 4a 1e 00 00       	call   34e67 <assertion_failure>
   3301d:	8b 45 ec             	mov    -0x14(%ebp),%eax
   33020:	8b 80 84 00 00 00    	mov    0x84(%eax),%eax
   33026:	3b 45 0c             	cmp    0xc(%ebp),%eax
   33029:	74 30                	je     3305b <msg_send+0x563>
   3302b:	a1 40 79 06 00       	mov    0x67940,%eax
   33030:	89 44 24 10          	mov    %eax,0x10(%esp)
   33034:	c7 44 24 0c a5 01 00 	movl   $0x1a5,0xc(%esp)
   3303b:	00 
   3303c:	c7 44 24 08 04 5e 03 	movl   $0x35e04,0x8(%esp)
   33043:	00 
   33044:	c7 44 24 04 04 5e 03 	movl   $0x35e04,0x4(%esp)
   3304b:	00 
   3304c:	c7 04 24 9d 60 03 00 	movl   $0x3609d,(%esp)
   33053:	e8 0f 1e 00 00       	call   34e67 <assertion_failure>
   33058:	eb 01                	jmp    3305b <msg_send+0x563>
   3305a:	90                   	nop
   3305b:	b8 00 00 00 00       	mov    $0x0,%eax
   33060:	83 c4 34             	add    $0x34,%esp
   33063:	5b                   	pop    %ebx
   33064:	5d                   	pop    %ebp
   33065:	c3                   	ret    

00033066 <msg_receive>:
   33066:	55                   	push   %ebp
   33067:	89 e5                	mov    %esp,%ebp
   33069:	53                   	push   %ebx
   3306a:	83 ec 74             	sub    $0x74,%esp
   3306d:	8b 45 08             	mov    0x8(%ebp),%eax
   33070:	89 45 e4             	mov    %eax,-0x1c(%ebp)
   33073:	c7 45 e8 00 00 00 00 	movl   $0x0,-0x18(%ebp)
   3307a:	c7 45 ec 00 00 00 00 	movl   $0x0,-0x14(%ebp)
   33081:	c7 45 f0 00 00 00 00 	movl   $0x0,-0x10(%ebp)
   33088:	8b 55 e4             	mov    -0x1c(%ebp),%edx
   3308b:	b8 60 79 06 00       	mov    $0x67960,%eax
   33090:	89 d1                	mov    %edx,%ecx
   33092:	29 c1                	sub    %eax,%ecx
   33094:	89 c8                	mov    %ecx,%eax
   33096:	c1 f8 02             	sar    $0x2,%eax
   33099:	69 c0 19 9c 8f c1    	imul   $0xc18f9c19,%eax,%eax
   3309f:	3b 45 0c             	cmp    0xc(%ebp),%eax
   330a2:	75 2d                	jne    330d1 <msg_receive+0x6b>
   330a4:	a1 40 79 06 00       	mov    0x67940,%eax
   330a9:	89 44 24 10          	mov    %eax,0x10(%esp)
   330ad:	c7 44 24 0c c6 01 00 	movl   $0x1c6,0xc(%esp)
   330b4:	00 
   330b5:	c7 44 24 08 04 5e 03 	movl   $0x35e04,0x8(%esp)
   330bc:	00 
   330bd:	c7 44 24 04 04 5e 03 	movl   $0x35e04,0x4(%esp)
   330c4:	00 
   330c5:	c7 04 24 b8 60 03 00 	movl   $0x360b8,(%esp)
   330cc:	e8 96 1d 00 00       	call   34e67 <assertion_failure>
   330d1:	8b 45 e4             	mov    -0x1c(%ebp),%eax
   330d4:	8b 80 88 00 00 00    	mov    0x88(%eax),%eax
   330da:	85 c0                	test   %eax,%eax
   330dc:	0f 84 93 01 00 00    	je     33275 <msg_receive+0x20f>
   330e2:	83 7d 0c 12          	cmpl   $0x12,0xc(%ebp)
   330e6:	74 0a                	je     330f2 <msg_receive+0x8c>
   330e8:	83 7d 0c f6          	cmpl   $0xfffffff6,0xc(%ebp)
   330ec:	0f 85 83 01 00 00    	jne    33275 <msg_receive+0x20f>
   330f2:	8d 45 b4             	lea    -0x4c(%ebp),%eax
   330f5:	89 04 24             	mov    %eax,(%esp)
   330f8:	e8 3f f7 ff ff       	call   3283c <reset_msg>
   330fd:	c7 45 b4 f6 ff ff ff 	movl   $0xfffffff6,-0x4c(%ebp)
   33104:	c7 45 b8 01 00 00 00 	movl   $0x1,-0x48(%ebp)
   3310b:	83 7d 10 00          	cmpl   $0x0,0x10(%ebp)
   3310f:	75 2d                	jne    3313e <msg_receive+0xd8>
   33111:	a1 40 79 06 00       	mov    0x67940,%eax
   33116:	89 44 24 10          	mov    %eax,0x10(%esp)
   3311a:	c7 44 24 0c d2 01 00 	movl   $0x1d2,0xc(%esp)
   33121:	00 
   33122:	c7 44 24 08 04 5e 03 	movl   $0x35e04,0x8(%esp)
   33129:	00 
   3312a:	c7 44 24 04 04 5e 03 	movl   $0x35e04,0x4(%esp)
   33131:	00 
   33132:	c7 04 24 a9 5f 03 00 	movl   $0x35fa9,(%esp)
   33139:	e8 29 1d 00 00       	call   34e67 <assertion_failure>
   3313e:	8b 55 e4             	mov    -0x1c(%ebp),%edx
   33141:	b8 60 79 06 00       	mov    $0x67960,%eax
   33146:	89 d3                	mov    %edx,%ebx
   33148:	29 c3                	sub    %eax,%ebx
   3314a:	89 d8                	mov    %ebx,%eax
   3314c:	c1 f8 02             	sar    $0x2,%eax
   3314f:	69 c0 19 9c 8f c1    	imul   $0xc18f9c19,%eax,%eax
   33155:	8b 55 10             	mov    0x10(%ebp),%edx
   33158:	89 54 24 04          	mov    %edx,0x4(%esp)
   3315c:	89 04 24             	mov    %eax,(%esp)
   3315f:	e8 62 f6 ff ff       	call   327c6 <va2la>
   33164:	c7 44 24 08 30 00 00 	movl   $0x30,0x8(%esp)
   3316b:	00 
   3316c:	8d 55 b4             	lea    -0x4c(%ebp),%edx
   3316f:	89 54 24 04          	mov    %edx,0x4(%esp)
   33173:	89 04 24             	mov    %eax,(%esp)
   33176:	e8 b5 d8 ff ff       	call   30a30 <memcpy>
   3317b:	8b 45 e4             	mov    -0x1c(%ebp),%eax
   3317e:	c7 80 88 00 00 00 00 	movl   $0x0,0x88(%eax)
   33185:	00 00 00 
   33188:	8b 45 e4             	mov    -0x1c(%ebp),%eax
   3318b:	8b 40 78             	mov    0x78(%eax),%eax
   3318e:	85 c0                	test   %eax,%eax
   33190:	74 2d                	je     331bf <msg_receive+0x159>
   33192:	a1 40 79 06 00       	mov    0x67940,%eax
   33197:	89 44 24 10          	mov    %eax,0x10(%esp)
   3319b:	c7 44 24 0c d8 01 00 	movl   $0x1d8,0xc(%esp)
   331a2:	00 
   331a3:	c7 44 24 08 04 5e 03 	movl   $0x35e04,0x8(%esp)
   331aa:	00 
   331ab:	c7 44 24 04 04 5e 03 	movl   $0x35e04,0x4(%esp)
   331b2:	00 
   331b3:	c7 04 24 dc 60 03 00 	movl   $0x360dc,(%esp)
   331ba:	e8 a8 1c 00 00       	call   34e67 <assertion_failure>
   331bf:	8b 45 e4             	mov    -0x1c(%ebp),%eax
   331c2:	8b 40 7c             	mov    0x7c(%eax),%eax
   331c5:	85 c0                	test   %eax,%eax
   331c7:	74 2d                	je     331f6 <msg_receive+0x190>
   331c9:	a1 40 79 06 00       	mov    0x67940,%eax
   331ce:	89 44 24 10          	mov    %eax,0x10(%esp)
   331d2:	c7 44 24 0c d9 01 00 	movl   $0x1d9,0xc(%esp)
   331d9:	00 
   331da:	c7 44 24 08 04 5e 03 	movl   $0x35e04,0x8(%esp)
   331e1:	00 
   331e2:	c7 44 24 04 04 5e 03 	movl   $0x35e04,0x4(%esp)
   331e9:	00 
   331ea:	c7 04 24 fb 60 03 00 	movl   $0x360fb,(%esp)
   331f1:	e8 71 1c 00 00       	call   34e67 <assertion_failure>
   331f6:	8b 45 e4             	mov    -0x1c(%ebp),%eax
   331f9:	8b 80 84 00 00 00    	mov    0x84(%eax),%eax
   331ff:	83 f8 1c             	cmp    $0x1c,%eax
   33202:	74 2d                	je     33231 <msg_receive+0x1cb>
   33204:	a1 40 79 06 00       	mov    0x67940,%eax
   33209:	89 44 24 10          	mov    %eax,0x10(%esp)
   3320d:	c7 44 24 0c da 01 00 	movl   $0x1da,0xc(%esp)
   33214:	00 
   33215:	c7 44 24 08 04 5e 03 	movl   $0x35e04,0x8(%esp)
   3321c:	00 
   3321d:	c7 44 24 04 04 5e 03 	movl   $0x35e04,0x4(%esp)
   33224:	00 
   33225:	c7 04 24 18 61 03 00 	movl   $0x36118,(%esp)
   3322c:	e8 36 1c 00 00       	call   34e67 <assertion_failure>
   33231:	8b 45 e4             	mov    -0x1c(%ebp),%eax
   33234:	8b 80 88 00 00 00    	mov    0x88(%eax),%eax
   3323a:	85 c0                	test   %eax,%eax
   3323c:	74 2d                	je     3326b <msg_receive+0x205>
   3323e:	a1 40 79 06 00       	mov    0x67940,%eax
   33243:	89 44 24 10          	mov    %eax,0x10(%esp)
   33247:	c7 44 24 0c db 01 00 	movl   $0x1db,0xc(%esp)
   3324e:	00 
   3324f:	c7 44 24 08 04 5e 03 	movl   $0x35e04,0x8(%esp)
   33256:	00 
   33257:	c7 44 24 04 04 5e 03 	movl   $0x35e04,0x4(%esp)
   3325e:	00 
   3325f:	c7 04 24 40 61 03 00 	movl   $0x36140,(%esp)
   33266:	e8 fc 1b 00 00       	call   34e67 <assertion_failure>
   3326b:	b8 00 00 00 00       	mov    $0x0,%eax
   33270:	e9 bd 08 00 00       	jmp    33b32 <msg_receive+0xacc>
   33275:	83 7d 0c 12          	cmpl   $0x12,0xc(%ebp)
   33279:	0f 85 46 02 00 00    	jne    334c5 <msg_receive+0x45f>
   3327f:	8b 45 e4             	mov    -0x1c(%ebp),%eax
   33282:	8b 80 8c 00 00 00    	mov    0x8c(%eax),%eax
   33288:	85 c0                	test   %eax,%eax
   3328a:	0f 84 5c 05 00 00    	je     337ec <msg_receive+0x786>
   33290:	8b 45 e4             	mov    -0x1c(%ebp),%eax
   33293:	8b 80 8c 00 00 00    	mov    0x8c(%eax),%eax
   33299:	89 45 e8             	mov    %eax,-0x18(%ebp)
   3329c:	c7 45 f0 01 00 00 00 	movl   $0x1,-0x10(%ebp)
   332a3:	8b 45 e4             	mov    -0x1c(%ebp),%eax
   332a6:	8b 40 78             	mov    0x78(%eax),%eax
   332a9:	85 c0                	test   %eax,%eax
   332ab:	74 2d                	je     332da <msg_receive+0x274>
   332ad:	a1 40 79 06 00       	mov    0x67940,%eax
   332b2:	89 44 24 10          	mov    %eax,0x10(%esp)
   332b6:	c7 44 24 0c eb 01 00 	movl   $0x1eb,0xc(%esp)
   332bd:	00 
   332be:	c7 44 24 08 04 5e 03 	movl   $0x35e04,0x8(%esp)
   332c5:	00 
   332c6:	c7 44 24 04 04 5e 03 	movl   $0x35e04,0x4(%esp)
   332cd:	00 
   332ce:	c7 04 24 dc 60 03 00 	movl   $0x360dc,(%esp)
   332d5:	e8 8d 1b 00 00       	call   34e67 <assertion_failure>
   332da:	8b 45 e4             	mov    -0x1c(%ebp),%eax
   332dd:	8b 40 7c             	mov    0x7c(%eax),%eax
   332e0:	85 c0                	test   %eax,%eax
   332e2:	74 2d                	je     33311 <msg_receive+0x2ab>
   332e4:	a1 40 79 06 00       	mov    0x67940,%eax
   332e9:	89 44 24 10          	mov    %eax,0x10(%esp)
   332ed:	c7 44 24 0c ec 01 00 	movl   $0x1ec,0xc(%esp)
   332f4:	00 
   332f5:	c7 44 24 08 04 5e 03 	movl   $0x35e04,0x8(%esp)
   332fc:	00 
   332fd:	c7 44 24 04 04 5e 03 	movl   $0x35e04,0x4(%esp)
   33304:	00 
   33305:	c7 04 24 fb 60 03 00 	movl   $0x360fb,(%esp)
   3330c:	e8 56 1b 00 00       	call   34e67 <assertion_failure>
   33311:	8b 45 e4             	mov    -0x1c(%ebp),%eax
   33314:	8b 80 80 00 00 00    	mov    0x80(%eax),%eax
   3331a:	83 f8 1c             	cmp    $0x1c,%eax
   3331d:	74 2d                	je     3334c <msg_receive+0x2e6>
   3331f:	a1 40 79 06 00       	mov    0x67940,%eax
   33324:	89 44 24 10          	mov    %eax,0x10(%esp)
   33328:	c7 44 24 0c ed 01 00 	movl   $0x1ed,0xc(%esp)
   3332f:	00 
   33330:	c7 44 24 08 04 5e 03 	movl   $0x35e04,0x8(%esp)
   33337:	00 
   33338:	c7 44 24 04 04 5e 03 	movl   $0x35e04,0x4(%esp)
   3333f:	00 
   33340:	c7 04 24 64 61 03 00 	movl   $0x36164,(%esp)
   33347:	e8 1b 1b 00 00       	call   34e67 <assertion_failure>
   3334c:	8b 45 e4             	mov    -0x1c(%ebp),%eax
   3334f:	8b 80 84 00 00 00    	mov    0x84(%eax),%eax
   33355:	83 f8 1c             	cmp    $0x1c,%eax
   33358:	74 2d                	je     33387 <msg_receive+0x321>
   3335a:	a1 40 79 06 00       	mov    0x67940,%eax
   3335f:	89 44 24 10          	mov    %eax,0x10(%esp)
   33363:	c7 44 24 0c ee 01 00 	movl   $0x1ee,0xc(%esp)
   3336a:	00 
   3336b:	c7 44 24 08 04 5e 03 	movl   $0x35e04,0x8(%esp)
   33372:	00 
   33373:	c7 44 24 04 04 5e 03 	movl   $0x35e04,0x4(%esp)
   3337a:	00 
   3337b:	c7 04 24 18 61 03 00 	movl   $0x36118,(%esp)
   33382:	e8 e0 1a 00 00       	call   34e67 <assertion_failure>
   33387:	8b 45 e4             	mov    -0x1c(%ebp),%eax
   3338a:	8b 80 8c 00 00 00    	mov    0x8c(%eax),%eax
   33390:	85 c0                	test   %eax,%eax
   33392:	75 2d                	jne    333c1 <msg_receive+0x35b>
   33394:	a1 40 79 06 00       	mov    0x67940,%eax
   33399:	89 44 24 10          	mov    %eax,0x10(%esp)
   3339d:	c7 44 24 0c ef 01 00 	movl   $0x1ef,0xc(%esp)
   333a4:	00 
   333a5:	c7 44 24 08 04 5e 03 	movl   $0x35e04,0x8(%esp)
   333ac:	00 
   333ad:	c7 44 24 04 04 5e 03 	movl   $0x35e04,0x4(%esp)
   333b4:	00 
   333b5:	c7 04 24 8c 61 03 00 	movl   $0x3618c,(%esp)
   333bc:	e8 a6 1a 00 00       	call   34e67 <assertion_failure>
   333c1:	8b 45 e8             	mov    -0x18(%ebp),%eax
   333c4:	8b 40 78             	mov    0x78(%eax),%eax
   333c7:	83 f8 02             	cmp    $0x2,%eax
   333ca:	74 2d                	je     333f9 <msg_receive+0x393>
   333cc:	a1 40 79 06 00       	mov    0x67940,%eax
   333d1:	89 44 24 10          	mov    %eax,0x10(%esp)
   333d5:	c7 44 24 0c f0 01 00 	movl   $0x1f0,0xc(%esp)
   333dc:	00 
   333dd:	c7 44 24 08 04 5e 03 	movl   $0x35e04,0x8(%esp)
   333e4:	00 
   333e5:	c7 44 24 04 04 5e 03 	movl   $0x35e04,0x4(%esp)
   333ec:	00 
   333ed:	c7 04 24 ad 61 03 00 	movl   $0x361ad,(%esp)
   333f4:	e8 6e 1a 00 00       	call   34e67 <assertion_failure>
   333f9:	8b 45 e8             	mov    -0x18(%ebp),%eax
   333fc:	8b 40 7c             	mov    0x7c(%eax),%eax
   333ff:	85 c0                	test   %eax,%eax
   33401:	75 2d                	jne    33430 <msg_receive+0x3ca>
   33403:	a1 40 79 06 00       	mov    0x67940,%eax
   33408:	89 44 24 10          	mov    %eax,0x10(%esp)
   3340c:	c7 44 24 0c f1 01 00 	movl   $0x1f1,0xc(%esp)
   33413:	00 
   33414:	c7 44 24 08 04 5e 03 	movl   $0x35e04,0x8(%esp)
   3341b:	00 
   3341c:	c7 44 24 04 04 5e 03 	movl   $0x35e04,0x4(%esp)
   33423:	00 
   33424:	c7 04 24 c8 61 03 00 	movl   $0x361c8,(%esp)
   3342b:	e8 37 1a 00 00       	call   34e67 <assertion_failure>
   33430:	8b 45 e8             	mov    -0x18(%ebp),%eax
   33433:	8b 80 80 00 00 00    	mov    0x80(%eax),%eax
   33439:	83 f8 1c             	cmp    $0x1c,%eax
   3343c:	74 2d                	je     3346b <msg_receive+0x405>
   3343e:	a1 40 79 06 00       	mov    0x67940,%eax
   33443:	89 44 24 10          	mov    %eax,0x10(%esp)
   33447:	c7 44 24 0c f2 01 00 	movl   $0x1f2,0xc(%esp)
   3344e:	00 
   3344f:	c7 44 24 08 04 5e 03 	movl   $0x35e04,0x8(%esp)
   33456:	00 
   33457:	c7 44 24 04 04 5e 03 	movl   $0x35e04,0x4(%esp)
   3345e:	00 
   3345f:	c7 04 24 db 61 03 00 	movl   $0x361db,(%esp)
   33466:	e8 fc 19 00 00       	call   34e67 <assertion_failure>
   3346b:	8b 45 e8             	mov    -0x18(%ebp),%eax
   3346e:	8b 90 84 00 00 00    	mov    0x84(%eax),%edx
   33474:	8b 4d e4             	mov    -0x1c(%ebp),%ecx
   33477:	b8 60 79 06 00       	mov    $0x67960,%eax
   3347c:	89 cb                	mov    %ecx,%ebx
   3347e:	29 c3                	sub    %eax,%ebx
   33480:	89 d8                	mov    %ebx,%eax
   33482:	c1 f8 02             	sar    $0x2,%eax
   33485:	69 c0 19 9c 8f c1    	imul   $0xc18f9c19,%eax,%eax
   3348b:	39 c2                	cmp    %eax,%edx
   3348d:	0f 84 5a 03 00 00    	je     337ed <msg_receive+0x787>
   33493:	a1 40 79 06 00       	mov    0x67940,%eax
   33498:	89 44 24 10          	mov    %eax,0x10(%esp)
   3349c:	c7 44 24 0c f3 01 00 	movl   $0x1f3,0xc(%esp)
   334a3:	00 
   334a4:	c7 44 24 08 04 5e 03 	movl   $0x35e04,0x8(%esp)
   334ab:	00 
   334ac:	c7 44 24 04 04 5e 03 	movl   $0x35e04,0x4(%esp)
   334b3:	00 
   334b4:	c7 04 24 fc 61 03 00 	movl   $0x361fc,(%esp)
   334bb:	e8 a7 19 00 00       	call   34e67 <assertion_failure>
   334c0:	e9 28 03 00 00       	jmp    337ed <msg_receive+0x787>
   334c5:	8b 45 0c             	mov    0xc(%ebp),%eax
   334c8:	69 c0 a4 00 00 00    	imul   $0xa4,%eax,%eax
   334ce:	05 60 79 06 00       	add    $0x67960,%eax
   334d3:	89 45 e8             	mov    %eax,-0x18(%ebp)
   334d6:	8b 45 e8             	mov    -0x18(%ebp),%eax
   334d9:	8b 40 78             	mov    0x78(%eax),%eax
   334dc:	83 e0 02             	and    $0x2,%eax
   334df:	85 c0                	test   %eax,%eax
   334e1:	0f 84 06 03 00 00    	je     337ed <msg_receive+0x787>
   334e7:	8b 45 e8             	mov    -0x18(%ebp),%eax
   334ea:	8b 90 84 00 00 00    	mov    0x84(%eax),%edx
   334f0:	8b 4d e4             	mov    -0x1c(%ebp),%ecx
   334f3:	b8 60 79 06 00       	mov    $0x67960,%eax
   334f8:	89 cb                	mov    %ecx,%ebx
   334fa:	29 c3                	sub    %eax,%ebx
   334fc:	89 d8                	mov    %ebx,%eax
   334fe:	c1 f8 02             	sar    $0x2,%eax
   33501:	69 c0 19 9c 8f c1    	imul   $0xc18f9c19,%eax,%eax
   33507:	39 c2                	cmp    %eax,%edx
   33509:	0f 85 de 02 00 00    	jne    337ed <msg_receive+0x787>
   3350f:	c7 45 f0 01 00 00 00 	movl   $0x1,-0x10(%ebp)
   33516:	8b 45 e4             	mov    -0x1c(%ebp),%eax
   33519:	8b 80 8c 00 00 00    	mov    0x8c(%eax),%eax
   3351f:	89 45 f4             	mov    %eax,-0xc(%ebp)
   33522:	83 7d f4 00          	cmpl   $0x0,-0xc(%ebp)
   33526:	0f 85 9f 00 00 00    	jne    335cb <msg_receive+0x565>
   3352c:	a1 40 79 06 00       	mov    0x67940,%eax
   33531:	89 44 24 10          	mov    %eax,0x10(%esp)
   33535:	c7 44 24 0c 04 02 00 	movl   $0x204,0xc(%esp)
   3353c:	00 
   3353d:	c7 44 24 08 04 5e 03 	movl   $0x35e04,0x8(%esp)
   33544:	00 
   33545:	c7 44 24 04 04 5e 03 	movl   $0x35e04,0x4(%esp)
   3354c:	00 
   3354d:	c7 04 24 2b 62 03 00 	movl   $0x3622b,(%esp)
   33554:	e8 0e 19 00 00       	call   34e67 <assertion_failure>
   33559:	eb 70                	jmp    335cb <msg_receive+0x565>
   3355b:	8b 45 e8             	mov    -0x18(%ebp),%eax
   3355e:	8b 40 78             	mov    0x78(%eax),%eax
   33561:	83 e0 02             	and    $0x2,%eax
   33564:	85 c0                	test   %eax,%eax
   33566:	75 2d                	jne    33595 <msg_receive+0x52f>
   33568:	a1 40 79 06 00       	mov    0x67940,%eax
   3356d:	89 44 24 10          	mov    %eax,0x10(%esp)
   33571:	c7 44 24 0c 08 02 00 	movl   $0x208,0xc(%esp)
   33578:	00 
   33579:	c7 44 24 08 04 5e 03 	movl   $0x35e04,0x8(%esp)
   33580:	00 
   33581:	c7 44 24 04 04 5e 03 	movl   $0x35e04,0x4(%esp)
   33588:	00 
   33589:	c7 04 24 2d 62 03 00 	movl   $0x3622d,(%esp)
   33590:	e8 d2 18 00 00       	call   34e67 <assertion_failure>
   33595:	8b 55 f4             	mov    -0xc(%ebp),%edx
   33598:	b8 60 79 06 00       	mov    $0x67960,%eax
   3359d:	89 d1                	mov    %edx,%ecx
   3359f:	29 c1                	sub    %eax,%ecx
   335a1:	89 c8                	mov    %ecx,%eax
   335a3:	c1 f8 02             	sar    $0x2,%eax
   335a6:	69 c0 19 9c 8f c1    	imul   $0xc18f9c19,%eax,%eax
   335ac:	3b 45 0c             	cmp    0xc(%ebp),%eax
   335af:	75 08                	jne    335b9 <msg_receive+0x553>
   335b1:	8b 45 f4             	mov    -0xc(%ebp),%eax
   335b4:	89 45 e8             	mov    %eax,-0x18(%ebp)
   335b7:	eb 18                	jmp    335d1 <msg_receive+0x56b>
   335b9:	8b 45 f4             	mov    -0xc(%ebp),%eax
   335bc:	89 45 ec             	mov    %eax,-0x14(%ebp)
   335bf:	8b 45 f4             	mov    -0xc(%ebp),%eax
   335c2:	8b 80 90 00 00 00    	mov    0x90(%eax),%eax
   335c8:	89 45 f4             	mov    %eax,-0xc(%ebp)
   335cb:	83 7d f4 00          	cmpl   $0x0,-0xc(%ebp)
   335cf:	75 8a                	jne    3355b <msg_receive+0x4f5>
   335d1:	8b 45 e4             	mov    -0x1c(%ebp),%eax
   335d4:	8b 40 78             	mov    0x78(%eax),%eax
   335d7:	85 c0                	test   %eax,%eax
   335d9:	74 2d                	je     33608 <msg_receive+0x5a2>
   335db:	a1 40 79 06 00       	mov    0x67940,%eax
   335e0:	89 44 24 10          	mov    %eax,0x10(%esp)
   335e4:	c7 44 24 0c 11 02 00 	movl   $0x211,0xc(%esp)
   335eb:	00 
   335ec:	c7 44 24 08 04 5e 03 	movl   $0x35e04,0x8(%esp)
   335f3:	00 
   335f4:	c7 44 24 04 04 5e 03 	movl   $0x35e04,0x4(%esp)
   335fb:	00 
   335fc:	c7 04 24 dc 60 03 00 	movl   $0x360dc,(%esp)
   33603:	e8 5f 18 00 00       	call   34e67 <assertion_failure>
   33608:	8b 45 e4             	mov    -0x1c(%ebp),%eax
   3360b:	8b 40 7c             	mov    0x7c(%eax),%eax
   3360e:	85 c0                	test   %eax,%eax
   33610:	74 2d                	je     3363f <msg_receive+0x5d9>
   33612:	a1 40 79 06 00       	mov    0x67940,%eax
   33617:	89 44 24 10          	mov    %eax,0x10(%esp)
   3361b:	c7 44 24 0c 12 02 00 	movl   $0x212,0xc(%esp)
   33622:	00 
   33623:	c7 44 24 08 04 5e 03 	movl   $0x35e04,0x8(%esp)
   3362a:	00 
   3362b:	c7 44 24 04 04 5e 03 	movl   $0x35e04,0x4(%esp)
   33632:	00 
   33633:	c7 04 24 fb 60 03 00 	movl   $0x360fb,(%esp)
   3363a:	e8 28 18 00 00       	call   34e67 <assertion_failure>
   3363f:	8b 45 e4             	mov    -0x1c(%ebp),%eax
   33642:	8b 80 80 00 00 00    	mov    0x80(%eax),%eax
   33648:	83 f8 1c             	cmp    $0x1c,%eax
   3364b:	74 2d                	je     3367a <msg_receive+0x614>
   3364d:	a1 40 79 06 00       	mov    0x67940,%eax
   33652:	89 44 24 10          	mov    %eax,0x10(%esp)
   33656:	c7 44 24 0c 13 02 00 	movl   $0x213,0xc(%esp)
   3365d:	00 
   3365e:	c7 44 24 08 04 5e 03 	movl   $0x35e04,0x8(%esp)
   33665:	00 
   33666:	c7 44 24 04 04 5e 03 	movl   $0x35e04,0x4(%esp)
   3366d:	00 
   3366e:	c7 04 24 64 61 03 00 	movl   $0x36164,(%esp)
   33675:	e8 ed 17 00 00       	call   34e67 <assertion_failure>
   3367a:	8b 45 e4             	mov    -0x1c(%ebp),%eax
   3367d:	8b 80 84 00 00 00    	mov    0x84(%eax),%eax
   33683:	83 f8 1c             	cmp    $0x1c,%eax
   33686:	74 2d                	je     336b5 <msg_receive+0x64f>
   33688:	a1 40 79 06 00       	mov    0x67940,%eax
   3368d:	89 44 24 10          	mov    %eax,0x10(%esp)
   33691:	c7 44 24 0c 14 02 00 	movl   $0x214,0xc(%esp)
   33698:	00 
   33699:	c7 44 24 08 04 5e 03 	movl   $0x35e04,0x8(%esp)
   336a0:	00 
   336a1:	c7 44 24 04 04 5e 03 	movl   $0x35e04,0x4(%esp)
   336a8:	00 
   336a9:	c7 04 24 18 61 03 00 	movl   $0x36118,(%esp)
   336b0:	e8 b2 17 00 00       	call   34e67 <assertion_failure>
   336b5:	8b 45 e4             	mov    -0x1c(%ebp),%eax
   336b8:	8b 80 8c 00 00 00    	mov    0x8c(%eax),%eax
   336be:	85 c0                	test   %eax,%eax
   336c0:	75 2d                	jne    336ef <msg_receive+0x689>
   336c2:	a1 40 79 06 00       	mov    0x67940,%eax
   336c7:	89 44 24 10          	mov    %eax,0x10(%esp)
   336cb:	c7 44 24 0c 15 02 00 	movl   $0x215,0xc(%esp)
   336d2:	00 
   336d3:	c7 44 24 08 04 5e 03 	movl   $0x35e04,0x8(%esp)
   336da:	00 
   336db:	c7 44 24 04 04 5e 03 	movl   $0x35e04,0x4(%esp)
   336e2:	00 
   336e3:	c7 04 24 8c 61 03 00 	movl   $0x3618c,(%esp)
   336ea:	e8 78 17 00 00       	call   34e67 <assertion_failure>
   336ef:	8b 45 e8             	mov    -0x18(%ebp),%eax
   336f2:	8b 40 78             	mov    0x78(%eax),%eax
   336f5:	83 f8 02             	cmp    $0x2,%eax
   336f8:	74 2d                	je     33727 <msg_receive+0x6c1>
   336fa:	a1 40 79 06 00       	mov    0x67940,%eax
   336ff:	89 44 24 10          	mov    %eax,0x10(%esp)
   33703:	c7 44 24 0c 16 02 00 	movl   $0x216,0xc(%esp)
   3370a:	00 
   3370b:	c7 44 24 08 04 5e 03 	movl   $0x35e04,0x8(%esp)
   33712:	00 
   33713:	c7 44 24 04 04 5e 03 	movl   $0x35e04,0x4(%esp)
   3371a:	00 
   3371b:	c7 04 24 ad 61 03 00 	movl   $0x361ad,(%esp)
   33722:	e8 40 17 00 00       	call   34e67 <assertion_failure>
   33727:	8b 45 e8             	mov    -0x18(%ebp),%eax
   3372a:	8b 40 7c             	mov    0x7c(%eax),%eax
   3372d:	85 c0                	test   %eax,%eax
   3372f:	75 2d                	jne    3375e <msg_receive+0x6f8>
   33731:	a1 40 79 06 00       	mov    0x67940,%eax
   33736:	89 44 24 10          	mov    %eax,0x10(%esp)
   3373a:	c7 44 24 0c 17 02 00 	movl   $0x217,0xc(%esp)
   33741:	00 
   33742:	c7 44 24 08 04 5e 03 	movl   $0x35e04,0x8(%esp)
   33749:	00 
   3374a:	c7 44 24 04 04 5e 03 	movl   $0x35e04,0x4(%esp)
   33751:	00 
   33752:	c7 04 24 c8 61 03 00 	movl   $0x361c8,(%esp)
   33759:	e8 09 17 00 00       	call   34e67 <assertion_failure>
   3375e:	8b 45 e8             	mov    -0x18(%ebp),%eax
   33761:	8b 80 80 00 00 00    	mov    0x80(%eax),%eax
   33767:	83 f8 1c             	cmp    $0x1c,%eax
   3376a:	74 2d                	je     33799 <msg_receive+0x733>
   3376c:	a1 40 79 06 00       	mov    0x67940,%eax
   33771:	89 44 24 10          	mov    %eax,0x10(%esp)
   33775:	c7 44 24 0c 18 02 00 	movl   $0x218,0xc(%esp)
   3377c:	00 
   3377d:	c7 44 24 08 04 5e 03 	movl   $0x35e04,0x8(%esp)
   33784:	00 
   33785:	c7 44 24 04 04 5e 03 	movl   $0x35e04,0x4(%esp)
   3378c:	00 
   3378d:	c7 04 24 db 61 03 00 	movl   $0x361db,(%esp)
   33794:	e8 ce 16 00 00       	call   34e67 <assertion_failure>
   33799:	8b 45 e8             	mov    -0x18(%ebp),%eax
   3379c:	8b 90 84 00 00 00    	mov    0x84(%eax),%edx
   337a2:	8b 4d e4             	mov    -0x1c(%ebp),%ecx
   337a5:	b8 60 79 06 00       	mov    $0x67960,%eax
   337aa:	89 cb                	mov    %ecx,%ebx
   337ac:	29 c3                	sub    %eax,%ebx
   337ae:	89 d8                	mov    %ebx,%eax
   337b0:	c1 f8 02             	sar    $0x2,%eax
   337b3:	69 c0 19 9c 8f c1    	imul   $0xc18f9c19,%eax,%eax
   337b9:	39 c2                	cmp    %eax,%edx
   337bb:	74 30                	je     337ed <msg_receive+0x787>
   337bd:	a1 40 79 06 00       	mov    0x67940,%eax
   337c2:	89 44 24 10          	mov    %eax,0x10(%esp)
   337c6:	c7 44 24 0c 19 02 00 	movl   $0x219,0xc(%esp)
   337cd:	00 
   337ce:	c7 44 24 08 04 5e 03 	movl   $0x35e04,0x8(%esp)
   337d5:	00 
   337d6:	c7 44 24 04 04 5e 03 	movl   $0x35e04,0x4(%esp)
   337dd:	00 
   337de:	c7 04 24 fc 61 03 00 	movl   $0x361fc,(%esp)
   337e5:	e8 7d 16 00 00       	call   34e67 <assertion_failure>
   337ea:	eb 01                	jmp    337ed <msg_receive+0x787>
   337ec:	90                   	nop
   337ed:	83 7d f0 00          	cmpl   $0x0,-0x10(%ebp)
   337f1:	0f 84 bb 01 00 00    	je     339b2 <msg_receive+0x94c>
   337f7:	8b 45 e4             	mov    -0x1c(%ebp),%eax
   337fa:	8b 80 8c 00 00 00    	mov    0x8c(%eax),%eax
   33800:	3b 45 e8             	cmp    -0x18(%ebp),%eax
   33803:	75 54                	jne    33859 <msg_receive+0x7f3>
   33805:	83 7d ec 00          	cmpl   $0x0,-0x14(%ebp)
   33809:	74 2d                	je     33838 <msg_receive+0x7d2>
   3380b:	a1 40 79 06 00       	mov    0x67940,%eax
   33810:	89 44 24 10          	mov    %eax,0x10(%esp)
   33814:	c7 44 24 0c 24 02 00 	movl   $0x224,0xc(%esp)
   3381b:	00 
   3381c:	c7 44 24 08 04 5e 03 	movl   $0x35e04,0x8(%esp)
   33823:	00 
   33824:	c7 44 24 04 04 5e 03 	movl   $0x35e04,0x4(%esp)
   3382b:	00 
   3382c:	c7 04 24 47 62 03 00 	movl   $0x36247,(%esp)
   33833:	e8 2f 16 00 00       	call   34e67 <assertion_failure>
   33838:	8b 45 e8             	mov    -0x18(%ebp),%eax
   3383b:	8b 90 90 00 00 00    	mov    0x90(%eax),%edx
   33841:	8b 45 e4             	mov    -0x1c(%ebp),%eax
   33844:	89 90 8c 00 00 00    	mov    %edx,0x8c(%eax)
   3384a:	8b 45 e8             	mov    -0x18(%ebp),%eax
   3384d:	c7 80 90 00 00 00 00 	movl   $0x0,0x90(%eax)
   33854:	00 00 00 
   33857:	eb 52                	jmp    338ab <msg_receive+0x845>
   33859:	83 7d ec 00          	cmpl   $0x0,-0x14(%ebp)
   3385d:	75 2d                	jne    3388c <msg_receive+0x826>
   3385f:	a1 40 79 06 00       	mov    0x67940,%eax
   33864:	89 44 24 10          	mov    %eax,0x10(%esp)
   33868:	c7 44 24 0c 29 02 00 	movl   $0x229,0xc(%esp)
   3386f:	00 
   33870:	c7 44 24 08 04 5e 03 	movl   $0x35e04,0x8(%esp)
   33877:	00 
   33878:	c7 44 24 04 04 5e 03 	movl   $0x35e04,0x4(%esp)
   3387f:	00 
   33880:	c7 04 24 51 62 03 00 	movl   $0x36251,(%esp)
   33887:	e8 db 15 00 00       	call   34e67 <assertion_failure>
   3388c:	8b 45 e8             	mov    -0x18(%ebp),%eax
   3388f:	8b 90 90 00 00 00    	mov    0x90(%eax),%edx
   33895:	8b 45 ec             	mov    -0x14(%ebp),%eax
   33898:	89 90 90 00 00 00    	mov    %edx,0x90(%eax)
   3389e:	8b 45 e8             	mov    -0x18(%ebp),%eax
   338a1:	c7 80 90 00 00 00 00 	movl   $0x0,0x90(%eax)
   338a8:	00 00 00 
   338ab:	83 7d 10 00          	cmpl   $0x0,0x10(%ebp)
   338af:	75 2d                	jne    338de <msg_receive+0x878>
   338b1:	a1 40 79 06 00       	mov    0x67940,%eax
   338b6:	89 44 24 10          	mov    %eax,0x10(%esp)
   338ba:	c7 44 24 0c 2e 02 00 	movl   $0x22e,0xc(%esp)
   338c1:	00 
   338c2:	c7 44 24 08 04 5e 03 	movl   $0x35e04,0x8(%esp)
   338c9:	00 
   338ca:	c7 44 24 04 04 5e 03 	movl   $0x35e04,0x4(%esp)
   338d1:	00 
   338d2:	c7 04 24 a9 5f 03 00 	movl   $0x35fa9,(%esp)
   338d9:	e8 89 15 00 00       	call   34e67 <assertion_failure>
   338de:	8b 45 e8             	mov    -0x18(%ebp),%eax
   338e1:	8b 40 7c             	mov    0x7c(%eax),%eax
   338e4:	85 c0                	test   %eax,%eax
   338e6:	75 2d                	jne    33915 <msg_receive+0x8af>
   338e8:	a1 40 79 06 00       	mov    0x67940,%eax
   338ed:	89 44 24 10          	mov    %eax,0x10(%esp)
   338f1:	c7 44 24 0c 2f 02 00 	movl   $0x22f,0xc(%esp)
   338f8:	00 
   338f9:	c7 44 24 08 04 5e 03 	movl   $0x35e04,0x8(%esp)
   33900:	00 
   33901:	c7 44 24 04 04 5e 03 	movl   $0x35e04,0x4(%esp)
   33908:	00 
   33909:	c7 04 24 56 62 03 00 	movl   $0x36256,(%esp)
   33910:	e8 52 15 00 00       	call   34e67 <assertion_failure>
   33915:	8b 45 e8             	mov    -0x18(%ebp),%eax
   33918:	8b 50 7c             	mov    0x7c(%eax),%edx
   3391b:	8b 4d e8             	mov    -0x18(%ebp),%ecx
   3391e:	b8 60 79 06 00       	mov    $0x67960,%eax
   33923:	89 cb                	mov    %ecx,%ebx
   33925:	29 c3                	sub    %eax,%ebx
   33927:	89 d8                	mov    %ebx,%eax
   33929:	c1 f8 02             	sar    $0x2,%eax
   3392c:	69 c0 19 9c 8f c1    	imul   $0xc18f9c19,%eax,%eax
   33932:	89 54 24 04          	mov    %edx,0x4(%esp)
   33936:	89 04 24             	mov    %eax,(%esp)
   33939:	e8 88 ee ff ff       	call   327c6 <va2la>
   3393e:	89 c3                	mov    %eax,%ebx
   33940:	8b 55 e4             	mov    -0x1c(%ebp),%edx
   33943:	b8 60 79 06 00       	mov    $0x67960,%eax
   33948:	89 d1                	mov    %edx,%ecx
   3394a:	29 c1                	sub    %eax,%ecx
   3394c:	89 c8                	mov    %ecx,%eax
   3394e:	c1 f8 02             	sar    $0x2,%eax
   33951:	69 c0 19 9c 8f c1    	imul   $0xc18f9c19,%eax,%eax
   33957:	8b 55 10             	mov    0x10(%ebp),%edx
   3395a:	89 54 24 04          	mov    %edx,0x4(%esp)
   3395e:	89 04 24             	mov    %eax,(%esp)
   33961:	e8 60 ee ff ff       	call   327c6 <va2la>
   33966:	c7 44 24 08 30 00 00 	movl   $0x30,0x8(%esp)
   3396d:	00 
   3396e:	89 5c 24 04          	mov    %ebx,0x4(%esp)
   33972:	89 04 24             	mov    %eax,(%esp)
   33975:	e8 b6 d0 ff ff       	call   30a30 <memcpy>
   3397a:	8b 45 e8             	mov    -0x18(%ebp),%eax
   3397d:	c7 40 7c 00 00 00 00 	movl   $0x0,0x7c(%eax)
   33984:	8b 45 e8             	mov    -0x18(%ebp),%eax
   33987:	c7 80 84 00 00 00 1c 	movl   $0x1c,0x84(%eax)
   3398e:	00 00 00 
   33991:	8b 45 e8             	mov    -0x18(%ebp),%eax
   33994:	8b 40 78             	mov    0x78(%eax),%eax
   33997:	89 c2                	mov    %eax,%edx
   33999:	83 e2 fd             	and    $0xfffffffd,%edx
   3399c:	8b 45 e8             	mov    -0x18(%ebp),%eax
   3399f:	89 50 78             	mov    %edx,0x78(%eax)
   339a2:	8b 45 e8             	mov    -0x18(%ebp),%eax
   339a5:	89 04 24             	mov    %eax,(%esp)
   339a8:	e8 f6 ee ff ff       	call   328a3 <unblock>
   339ad:	e9 7b 01 00 00       	jmp    33b2d <msg_receive+0xac7>
   339b2:	8b 45 e4             	mov    -0x1c(%ebp),%eax
   339b5:	8b 40 78             	mov    0x78(%eax),%eax
   339b8:	89 c2                	mov    %eax,%edx
   339ba:	83 ca 04             	or     $0x4,%edx
   339bd:	8b 45 e4             	mov    -0x1c(%ebp),%eax
   339c0:	89 50 78             	mov    %edx,0x78(%eax)
   339c3:	8b 45 e4             	mov    -0x1c(%ebp),%eax
   339c6:	8b 55 10             	mov    0x10(%ebp),%edx
   339c9:	89 50 7c             	mov    %edx,0x7c(%eax)
   339cc:	83 7d 0c 12          	cmpl   $0x12,0xc(%ebp)
   339d0:	75 0f                	jne    339e1 <msg_receive+0x97b>
   339d2:	8b 45 e4             	mov    -0x1c(%ebp),%eax
   339d5:	c7 80 80 00 00 00 12 	movl   $0x12,0x80(%eax)
   339dc:	00 00 00 
   339df:	eb 22                	jmp    33a03 <msg_receive+0x99d>
   339e1:	8b 55 e8             	mov    -0x18(%ebp),%edx
   339e4:	b8 60 79 06 00       	mov    $0x67960,%eax
   339e9:	89 d3                	mov    %edx,%ebx
   339eb:	29 c3                	sub    %eax,%ebx
   339ed:	89 d8                	mov    %ebx,%eax
   339ef:	c1 f8 02             	sar    $0x2,%eax
   339f2:	69 c0 19 9c 8f c1    	imul   $0xc18f9c19,%eax,%eax
   339f8:	89 c2                	mov    %eax,%edx
   339fa:	8b 45 e4             	mov    -0x1c(%ebp),%eax
   339fd:	89 90 80 00 00 00    	mov    %edx,0x80(%eax)
   33a03:	8b 45 e4             	mov    -0x1c(%ebp),%eax
   33a06:	89 04 24             	mov    %eax,(%esp)
   33a09:	e8 51 ee ff ff       	call   3285f <block>
   33a0e:	8b 45 e4             	mov    -0x1c(%ebp),%eax
   33a11:	8b 40 78             	mov    0x78(%eax),%eax
   33a14:	83 f8 04             	cmp    $0x4,%eax
   33a17:	74 2d                	je     33a46 <msg_receive+0x9e0>
   33a19:	a1 40 79 06 00       	mov    0x67940,%eax
   33a1e:	89 44 24 10          	mov    %eax,0x10(%esp)
   33a22:	c7 44 24 0c 48 02 00 	movl   $0x248,0xc(%esp)
   33a29:	00 
   33a2a:	c7 44 24 08 04 5e 03 	movl   $0x35e04,0x8(%esp)
   33a31:	00 
   33a32:	c7 44 24 04 04 5e 03 	movl   $0x35e04,0x4(%esp)
   33a39:	00 
   33a3a:	c7 04 24 64 62 03 00 	movl   $0x36264,(%esp)
   33a41:	e8 21 14 00 00       	call   34e67 <assertion_failure>
   33a46:	8b 45 e4             	mov    -0x1c(%ebp),%eax
   33a49:	8b 40 7c             	mov    0x7c(%eax),%eax
   33a4c:	85 c0                	test   %eax,%eax
   33a4e:	75 2d                	jne    33a7d <msg_receive+0xa17>
   33a50:	a1 40 79 06 00       	mov    0x67940,%eax
   33a55:	89 44 24 10          	mov    %eax,0x10(%esp)
   33a59:	c7 44 24 0c 49 02 00 	movl   $0x249,0xc(%esp)
   33a60:	00 
   33a61:	c7 44 24 08 04 5e 03 	movl   $0x35e04,0x8(%esp)
   33a68:	00 
   33a69:	c7 44 24 04 04 5e 03 	movl   $0x35e04,0x4(%esp)
   33a70:	00 
   33a71:	c7 04 24 8b 62 03 00 	movl   $0x3628b,(%esp)
   33a78:	e8 ea 13 00 00       	call   34e67 <assertion_failure>
   33a7d:	8b 45 e4             	mov    -0x1c(%ebp),%eax
   33a80:	8b 80 80 00 00 00    	mov    0x80(%eax),%eax
   33a86:	83 f8 1c             	cmp    $0x1c,%eax
   33a89:	75 2d                	jne    33ab8 <msg_receive+0xa52>
   33a8b:	a1 40 79 06 00       	mov    0x67940,%eax
   33a90:	89 44 24 10          	mov    %eax,0x10(%esp)
   33a94:	c7 44 24 0c 4a 02 00 	movl   $0x24a,0xc(%esp)
   33a9b:	00 
   33a9c:	c7 44 24 08 04 5e 03 	movl   $0x35e04,0x8(%esp)
   33aa3:	00 
   33aa4:	c7 44 24 04 04 5e 03 	movl   $0x35e04,0x4(%esp)
   33aab:	00 
   33aac:	c7 04 24 a8 62 03 00 	movl   $0x362a8,(%esp)
   33ab3:	e8 af 13 00 00       	call   34e67 <assertion_failure>
   33ab8:	8b 45 e4             	mov    -0x1c(%ebp),%eax
   33abb:	8b 80 84 00 00 00    	mov    0x84(%eax),%eax
   33ac1:	83 f8 1c             	cmp    $0x1c,%eax
   33ac4:	74 2d                	je     33af3 <msg_receive+0xa8d>
   33ac6:	a1 40 79 06 00       	mov    0x67940,%eax
   33acb:	89 44 24 10          	mov    %eax,0x10(%esp)
   33acf:	c7 44 24 0c 4b 02 00 	movl   $0x24b,0xc(%esp)
   33ad6:	00 
   33ad7:	c7 44 24 08 04 5e 03 	movl   $0x35e04,0x8(%esp)
   33ade:	00 
   33adf:	c7 44 24 04 04 5e 03 	movl   $0x35e04,0x4(%esp)
   33ae6:	00 
   33ae7:	c7 04 24 18 61 03 00 	movl   $0x36118,(%esp)
   33aee:	e8 74 13 00 00       	call   34e67 <assertion_failure>
   33af3:	8b 45 e4             	mov    -0x1c(%ebp),%eax
   33af6:	8b 80 88 00 00 00    	mov    0x88(%eax),%eax
   33afc:	85 c0                	test   %eax,%eax
   33afe:	74 2d                	je     33b2d <msg_receive+0xac7>
   33b00:	a1 40 79 06 00       	mov    0x67940,%eax
   33b05:	89 44 24 10          	mov    %eax,0x10(%esp)
   33b09:	c7 44 24 0c 4c 02 00 	movl   $0x24c,0xc(%esp)
   33b10:	00 
   33b11:	c7 44 24 08 04 5e 03 	movl   $0x35e04,0x8(%esp)
   33b18:	00 
   33b19:	c7 44 24 04 04 5e 03 	movl   $0x35e04,0x4(%esp)
   33b20:	00 
   33b21:	c7 04 24 40 61 03 00 	movl   $0x36140,(%esp)
   33b28:	e8 3a 13 00 00       	call   34e67 <assertion_failure>
   33b2d:	b8 00 00 00 00       	mov    $0x0,%eax
   33b32:	83 c4 74             	add    $0x74,%esp
   33b35:	5b                   	pop    %ebx
   33b36:	5d                   	pop    %ebp
   33b37:	c3                   	ret    

00033b38 <notify_int>:
   33b38:	55                   	push   %ebp
   33b39:	89 e5                	mov    %esp,%ebp
   33b3b:	83 ec 38             	sub    $0x38,%esp
   33b3e:	8b 45 08             	mov    0x8(%ebp),%eax
   33b41:	69 c0 a4 00 00 00    	imul   $0xa4,%eax,%eax
   33b47:	05 60 79 06 00       	add    $0x67960,%eax
   33b4c:	89 45 f4             	mov    %eax,-0xc(%ebp)
   33b4f:	8b 45 f4             	mov    -0xc(%ebp),%eax
   33b52:	8b 40 78             	mov    0x78(%eax),%eax
   33b55:	83 e0 04             	and    $0x4,%eax
   33b58:	85 c0                	test   %eax,%eax
   33b5a:	0f 84 96 01 00 00    	je     33cf6 <notify_int+0x1be>
   33b60:	8b 45 f4             	mov    -0xc(%ebp),%eax
   33b63:	8b 80 80 00 00 00    	mov    0x80(%eax),%eax
   33b69:	83 f8 f6             	cmp    $0xfffffff6,%eax
   33b6c:	74 12                	je     33b80 <notify_int+0x48>
   33b6e:	8b 45 f4             	mov    -0xc(%ebp),%eax
   33b71:	8b 80 80 00 00 00    	mov    0x80(%eax),%eax
   33b77:	83 f8 12             	cmp    $0x12,%eax
   33b7a:	0f 85 76 01 00 00    	jne    33cf6 <notify_int+0x1be>
   33b80:	8b 45 f4             	mov    -0xc(%ebp),%eax
   33b83:	8b 40 7c             	mov    0x7c(%eax),%eax
   33b86:	c7 00 f6 ff ff ff    	movl   $0xfffffff6,(%eax)
   33b8c:	8b 45 f4             	mov    -0xc(%ebp),%eax
   33b8f:	8b 40 7c             	mov    0x7c(%eax),%eax
   33b92:	c7 40 04 01 00 00 00 	movl   $0x1,0x4(%eax)
   33b99:	8b 45 f4             	mov    -0xc(%ebp),%eax
   33b9c:	c7 40 7c 00 00 00 00 	movl   $0x0,0x7c(%eax)
   33ba3:	8b 45 f4             	mov    -0xc(%ebp),%eax
   33ba6:	c7 80 88 00 00 00 00 	movl   $0x0,0x88(%eax)
   33bad:	00 00 00 
   33bb0:	8b 45 f4             	mov    -0xc(%ebp),%eax
   33bb3:	8b 40 78             	mov    0x78(%eax),%eax
   33bb6:	89 c2                	mov    %eax,%edx
   33bb8:	83 e2 fb             	and    $0xfffffffb,%edx
   33bbb:	8b 45 f4             	mov    -0xc(%ebp),%eax
   33bbe:	89 50 78             	mov    %edx,0x78(%eax)
   33bc1:	8b 45 f4             	mov    -0xc(%ebp),%eax
   33bc4:	c7 80 80 00 00 00 1c 	movl   $0x1c,0x80(%eax)
   33bcb:	00 00 00 
   33bce:	8b 45 f4             	mov    -0xc(%ebp),%eax
   33bd1:	8b 40 78             	mov    0x78(%eax),%eax
   33bd4:	85 c0                	test   %eax,%eax
   33bd6:	74 2d                	je     33c05 <notify_int+0xcd>
   33bd8:	a1 40 79 06 00       	mov    0x67940,%eax
   33bdd:	89 44 24 10          	mov    %eax,0x10(%esp)
   33be1:	c7 44 24 0c 65 02 00 	movl   $0x265,0xc(%esp)
   33be8:	00 
   33be9:	c7 44 24 08 04 5e 03 	movl   $0x35e04,0x8(%esp)
   33bf0:	00 
   33bf1:	c7 44 24 04 04 5e 03 	movl   $0x35e04,0x4(%esp)
   33bf8:	00 
   33bf9:	c7 04 24 33 5f 03 00 	movl   $0x35f33,(%esp)
   33c00:	e8 62 12 00 00       	call   34e67 <assertion_failure>
   33c05:	8b 45 f4             	mov    -0xc(%ebp),%eax
   33c08:	89 04 24             	mov    %eax,(%esp)
   33c0b:	e8 93 ec ff ff       	call   328a3 <unblock>
   33c10:	8b 45 f4             	mov    -0xc(%ebp),%eax
   33c13:	8b 40 78             	mov    0x78(%eax),%eax
   33c16:	85 c0                	test   %eax,%eax
   33c18:	74 2d                	je     33c47 <notify_int+0x10f>
   33c1a:	a1 40 79 06 00       	mov    0x67940,%eax
   33c1f:	89 44 24 10          	mov    %eax,0x10(%esp)
   33c23:	c7 44 24 0c 68 02 00 	movl   $0x268,0xc(%esp)
   33c2a:	00 
   33c2b:	c7 44 24 08 04 5e 03 	movl   $0x35e04,0x8(%esp)
   33c32:	00 
   33c33:	c7 44 24 04 04 5e 03 	movl   $0x35e04,0x4(%esp)
   33c3a:	00 
   33c3b:	c7 04 24 33 5f 03 00 	movl   $0x35f33,(%esp)
   33c42:	e8 20 12 00 00       	call   34e67 <assertion_failure>
   33c47:	8b 45 f4             	mov    -0xc(%ebp),%eax
   33c4a:	8b 40 7c             	mov    0x7c(%eax),%eax
   33c4d:	85 c0                	test   %eax,%eax
   33c4f:	74 2d                	je     33c7e <notify_int+0x146>
   33c51:	a1 40 79 06 00       	mov    0x67940,%eax
   33c56:	89 44 24 10          	mov    %eax,0x10(%esp)
   33c5a:	c7 44 24 0c 69 02 00 	movl   $0x269,0xc(%esp)
   33c61:	00 
   33c62:	c7 44 24 08 04 5e 03 	movl   $0x35e04,0x8(%esp)
   33c69:	00 
   33c6a:	c7 44 24 04 04 5e 03 	movl   $0x35e04,0x4(%esp)
   33c71:	00 
   33c72:	c7 04 24 d0 62 03 00 	movl   $0x362d0,(%esp)
   33c79:	e8 e9 11 00 00       	call   34e67 <assertion_failure>
   33c7e:	8b 45 f4             	mov    -0xc(%ebp),%eax
   33c81:	8b 80 80 00 00 00    	mov    0x80(%eax),%eax
   33c87:	83 f8 1c             	cmp    $0x1c,%eax
   33c8a:	74 2d                	je     33cb9 <notify_int+0x181>
   33c8c:	a1 40 79 06 00       	mov    0x67940,%eax
   33c91:	89 44 24 10          	mov    %eax,0x10(%esp)
   33c95:	c7 44 24 0c 6a 02 00 	movl   $0x26a,0xc(%esp)
   33c9c:	00 
   33c9d:	c7 44 24 08 04 5e 03 	movl   $0x35e04,0x8(%esp)
   33ca4:	00 
   33ca5:	c7 44 24 04 04 5e 03 	movl   $0x35e04,0x4(%esp)
   33cac:	00 
   33cad:	c7 04 24 de 62 03 00 	movl   $0x362de,(%esp)
   33cb4:	e8 ae 11 00 00       	call   34e67 <assertion_failure>
   33cb9:	8b 45 f4             	mov    -0xc(%ebp),%eax
   33cbc:	8b 80 84 00 00 00    	mov    0x84(%eax),%eax
   33cc2:	83 f8 1c             	cmp    $0x1c,%eax
   33cc5:	74 3e                	je     33d05 <notify_int+0x1cd>
   33cc7:	a1 40 79 06 00       	mov    0x67940,%eax
   33ccc:	89 44 24 10          	mov    %eax,0x10(%esp)
   33cd0:	c7 44 24 0c 6b 02 00 	movl   $0x26b,0xc(%esp)
   33cd7:	00 
   33cd8:	c7 44 24 08 04 5e 03 	movl   $0x35e04,0x8(%esp)
   33cdf:	00 
   33ce0:	c7 44 24 04 04 5e 03 	movl   $0x35e04,0x4(%esp)
   33ce7:	00 
   33ce8:	c7 04 24 f7 62 03 00 	movl   $0x362f7,(%esp)
   33cef:	e8 73 11 00 00       	call   34e67 <assertion_failure>
   33cf4:	eb 10                	jmp    33d06 <notify_int+0x1ce>
   33cf6:	8b 45 f4             	mov    -0xc(%ebp),%eax
   33cf9:	c7 80 88 00 00 00 01 	movl   $0x1,0x88(%eax)
   33d00:	00 00 00 
   33d03:	eb 01                	jmp    33d06 <notify_int+0x1ce>
   33d05:	90                   	nop
   33d06:	c9                   	leave  
   33d07:	c3                   	ret    

00033d08 <msg_notify>:
   33d08:	55                   	push   %ebp
   33d09:	89 e5                	mov    %esp,%ebp
   33d0b:	83 ec 38             	sub    $0x38,%esp
   33d0e:	8b 45 0c             	mov    0xc(%ebp),%eax
   33d11:	69 c0 a4 00 00 00    	imul   $0xa4,%eax,%eax
   33d17:	05 60 79 06 00       	add    $0x67960,%eax
   33d1c:	89 45 f4             	mov    %eax,-0xc(%ebp)
   33d1f:	8b 45 f4             	mov    -0xc(%ebp),%eax
   33d22:	8b 40 78             	mov    0x78(%eax),%eax
   33d25:	83 e0 04             	and    $0x4,%eax
   33d28:	85 c0                	test   %eax,%eax
   33d2a:	0f 84 95 01 00 00    	je     33ec5 <msg_notify+0x1bd>
   33d30:	8b 45 f4             	mov    -0xc(%ebp),%eax
   33d33:	8b 80 80 00 00 00    	mov    0x80(%eax),%eax
   33d39:	3b 45 08             	cmp    0x8(%ebp),%eax
   33d3c:	74 12                	je     33d50 <msg_notify+0x48>
   33d3e:	8b 45 f4             	mov    -0xc(%ebp),%eax
   33d41:	8b 80 80 00 00 00    	mov    0x80(%eax),%eax
   33d47:	83 f8 12             	cmp    $0x12,%eax
   33d4a:	0f 85 75 01 00 00    	jne    33ec5 <msg_notify+0x1bd>
   33d50:	8b 45 f4             	mov    -0xc(%ebp),%eax
   33d53:	8b 40 7c             	mov    0x7c(%eax),%eax
   33d56:	8b 55 08             	mov    0x8(%ebp),%edx
   33d59:	89 10                	mov    %edx,(%eax)
   33d5b:	8b 45 f4             	mov    -0xc(%ebp),%eax
   33d5e:	8b 40 7c             	mov    0x7c(%eax),%eax
   33d61:	c7 40 04 01 00 00 00 	movl   $0x1,0x4(%eax)
   33d68:	8b 45 f4             	mov    -0xc(%ebp),%eax
   33d6b:	c7 40 7c 00 00 00 00 	movl   $0x0,0x7c(%eax)
   33d72:	8b 45 f4             	mov    -0xc(%ebp),%eax
   33d75:	c7 80 88 00 00 00 00 	movl   $0x0,0x88(%eax)
   33d7c:	00 00 00 
   33d7f:	8b 45 f4             	mov    -0xc(%ebp),%eax
   33d82:	8b 40 78             	mov    0x78(%eax),%eax
   33d85:	89 c2                	mov    %eax,%edx
   33d87:	83 e2 fb             	and    $0xfffffffb,%edx
   33d8a:	8b 45 f4             	mov    -0xc(%ebp),%eax
   33d8d:	89 50 78             	mov    %edx,0x78(%eax)
   33d90:	8b 45 f4             	mov    -0xc(%ebp),%eax
   33d93:	c7 80 80 00 00 00 1c 	movl   $0x1c,0x80(%eax)
   33d9a:	00 00 00 
   33d9d:	8b 45 f4             	mov    -0xc(%ebp),%eax
   33da0:	8b 40 78             	mov    0x78(%eax),%eax
   33da3:	85 c0                	test   %eax,%eax
   33da5:	74 2d                	je     33dd4 <msg_notify+0xcc>
   33da7:	a1 40 79 06 00       	mov    0x67940,%eax
   33dac:	89 44 24 10          	mov    %eax,0x10(%esp)
   33db0:	c7 44 24 0c 85 02 00 	movl   $0x285,0xc(%esp)
   33db7:	00 
   33db8:	c7 44 24 08 04 5e 03 	movl   $0x35e04,0x8(%esp)
   33dbf:	00 
   33dc0:	c7 44 24 04 04 5e 03 	movl   $0x35e04,0x4(%esp)
   33dc7:	00 
   33dc8:	c7 04 24 33 5f 03 00 	movl   $0x35f33,(%esp)
   33dcf:	e8 93 10 00 00       	call   34e67 <assertion_failure>
   33dd4:	8b 45 f4             	mov    -0xc(%ebp),%eax
   33dd7:	89 04 24             	mov    %eax,(%esp)
   33dda:	e8 c4 ea ff ff       	call   328a3 <unblock>
   33ddf:	8b 45 f4             	mov    -0xc(%ebp),%eax
   33de2:	8b 40 78             	mov    0x78(%eax),%eax
   33de5:	85 c0                	test   %eax,%eax
   33de7:	74 2d                	je     33e16 <msg_notify+0x10e>
   33de9:	a1 40 79 06 00       	mov    0x67940,%eax
   33dee:	89 44 24 10          	mov    %eax,0x10(%esp)
   33df2:	c7 44 24 0c 88 02 00 	movl   $0x288,0xc(%esp)
   33df9:	00 
   33dfa:	c7 44 24 08 04 5e 03 	movl   $0x35e04,0x8(%esp)
   33e01:	00 
   33e02:	c7 44 24 04 04 5e 03 	movl   $0x35e04,0x4(%esp)
   33e09:	00 
   33e0a:	c7 04 24 33 5f 03 00 	movl   $0x35f33,(%esp)
   33e11:	e8 51 10 00 00       	call   34e67 <assertion_failure>
   33e16:	8b 45 f4             	mov    -0xc(%ebp),%eax
   33e19:	8b 40 7c             	mov    0x7c(%eax),%eax
   33e1c:	85 c0                	test   %eax,%eax
   33e1e:	74 2d                	je     33e4d <msg_notify+0x145>
   33e20:	a1 40 79 06 00       	mov    0x67940,%eax
   33e25:	89 44 24 10          	mov    %eax,0x10(%esp)
   33e29:	c7 44 24 0c 89 02 00 	movl   $0x289,0xc(%esp)
   33e30:	00 
   33e31:	c7 44 24 08 04 5e 03 	movl   $0x35e04,0x8(%esp)
   33e38:	00 
   33e39:	c7 44 24 04 04 5e 03 	movl   $0x35e04,0x4(%esp)
   33e40:	00 
   33e41:	c7 04 24 d0 62 03 00 	movl   $0x362d0,(%esp)
   33e48:	e8 1a 10 00 00       	call   34e67 <assertion_failure>
   33e4d:	8b 45 f4             	mov    -0xc(%ebp),%eax
   33e50:	8b 80 80 00 00 00    	mov    0x80(%eax),%eax
   33e56:	83 f8 1c             	cmp    $0x1c,%eax
   33e59:	74 2d                	je     33e88 <msg_notify+0x180>
   33e5b:	a1 40 79 06 00       	mov    0x67940,%eax
   33e60:	89 44 24 10          	mov    %eax,0x10(%esp)
   33e64:	c7 44 24 0c 8a 02 00 	movl   $0x28a,0xc(%esp)
   33e6b:	00 
   33e6c:	c7 44 24 08 04 5e 03 	movl   $0x35e04,0x8(%esp)
   33e73:	00 
   33e74:	c7 44 24 04 04 5e 03 	movl   $0x35e04,0x4(%esp)
   33e7b:	00 
   33e7c:	c7 04 24 de 62 03 00 	movl   $0x362de,(%esp)
   33e83:	e8 df 0f 00 00       	call   34e67 <assertion_failure>
   33e88:	8b 45 f4             	mov    -0xc(%ebp),%eax
   33e8b:	8b 80 84 00 00 00    	mov    0x84(%eax),%eax
   33e91:	83 f8 1c             	cmp    $0x1c,%eax
   33e94:	74 3e                	je     33ed4 <msg_notify+0x1cc>
   33e96:	a1 40 79 06 00       	mov    0x67940,%eax
   33e9b:	89 44 24 10          	mov    %eax,0x10(%esp)
   33e9f:	c7 44 24 0c 8b 02 00 	movl   $0x28b,0xc(%esp)
   33ea6:	00 
   33ea7:	c7 44 24 08 04 5e 03 	movl   $0x35e04,0x8(%esp)
   33eae:	00 
   33eaf:	c7 44 24 04 04 5e 03 	movl   $0x35e04,0x4(%esp)
   33eb6:	00 
   33eb7:	c7 04 24 f7 62 03 00 	movl   $0x362f7,(%esp)
   33ebe:	e8 a4 0f 00 00       	call   34e67 <assertion_failure>
   33ec3:	eb 10                	jmp    33ed5 <msg_notify+0x1cd>
   33ec5:	8b 45 f4             	mov    -0xc(%ebp),%eax
   33ec8:	c7 80 88 00 00 00 01 	movl   $0x1,0x88(%eax)
   33ecf:	00 00 00 
   33ed2:	eb 01                	jmp    33ed5 <msg_notify+0x1cd>
   33ed4:	90                   	nop
   33ed5:	c9                   	leave  
   33ed6:	c3                   	ret    

00033ed7 <lock_notify>:
   33ed7:	55                   	push   %ebp
   33ed8:	89 e5                	mov    %esp,%ebp
   33eda:	83 ec 18             	sub    $0x18,%esp
   33edd:	8b 45 0c             	mov    0xc(%ebp),%eax
   33ee0:	89 44 24 04          	mov    %eax,0x4(%esp)
   33ee4:	8b 45 08             	mov    0x8(%ebp),%eax
   33ee7:	89 04 24             	mov    %eax,(%esp)
   33eea:	e8 19 fe ff ff       	call   33d08 <msg_notify>
   33eef:	c9                   	leave  
   33ef0:	c3                   	ret    

00033ef1 <dump_msg>:
   33ef1:	55                   	push   %ebp
   33ef2:	89 e5                	mov    %esp,%ebp
   33ef4:	57                   	push   %edi
   33ef5:	56                   	push   %esi
   33ef6:	53                   	push   %ebx
   33ef7:	81 ec 9c 00 00 00    	sub    $0x9c,%esp
   33efd:	c7 45 e4 00 00 00 00 	movl   $0x0,-0x1c(%ebp)
   33f04:	83 7d e4 00          	cmpl   $0x0,-0x1c(%ebp)
   33f08:	74 07                	je     33f11 <dump_msg+0x20>
   33f0a:	bf 0e 63 03 00       	mov    $0x3630e,%edi
   33f0f:	eb 05                	jmp    33f16 <dump_msg+0x25>
   33f11:	bf 0f 63 03 00       	mov    $0x3630f,%edi
   33f16:	83 7d e4 00          	cmpl   $0x0,-0x1c(%ebp)
   33f1a:	74 09                	je     33f25 <dump_msg+0x34>
   33f1c:	c7 45 b4 0e 63 03 00 	movl   $0x3630e,-0x4c(%ebp)
   33f23:	eb 07                	jmp    33f2c <dump_msg+0x3b>
   33f25:	c7 45 b4 0f 63 03 00 	movl   $0x3630f,-0x4c(%ebp)
   33f2c:	8b 45 0c             	mov    0xc(%ebp),%eax
   33f2f:	8b 40 2c             	mov    0x2c(%eax),%eax
   33f32:	89 45 b8             	mov    %eax,-0x48(%ebp)
   33f35:	8b 45 0c             	mov    0xc(%ebp),%eax
   33f38:	8b 40 28             	mov    0x28(%eax),%eax
   33f3b:	89 45 bc             	mov    %eax,-0x44(%ebp)
   33f3e:	8b 45 0c             	mov    0xc(%ebp),%eax
   33f41:	8b 40 14             	mov    0x14(%eax),%eax
   33f44:	89 45 c0             	mov    %eax,-0x40(%ebp)
   33f47:	8b 45 0c             	mov    0xc(%ebp),%eax
   33f4a:	8b 40 10             	mov    0x10(%eax),%eax
   33f4d:	89 45 c4             	mov    %eax,-0x3c(%ebp)
   33f50:	8b 45 0c             	mov    0xc(%ebp),%eax
   33f53:	8b 40 0c             	mov    0xc(%eax),%eax
   33f56:	89 45 c8             	mov    %eax,-0x38(%ebp)
   33f59:	8b 45 0c             	mov    0xc(%ebp),%eax
   33f5c:	8b 40 08             	mov    0x8(%eax),%eax
   33f5f:	89 45 cc             	mov    %eax,-0x34(%ebp)
   33f62:	83 7d e4 00          	cmpl   $0x0,-0x1c(%ebp)
   33f66:	74 09                	je     33f71 <dump_msg+0x80>
   33f68:	c7 45 d0 11 63 03 00 	movl   $0x36311,-0x30(%ebp)
   33f6f:	eb 07                	jmp    33f78 <dump_msg+0x87>
   33f71:	c7 45 d0 13 63 03 00 	movl   $0x36313,-0x30(%ebp)
   33f78:	8b 45 0c             	mov    0xc(%ebp),%eax
   33f7b:	8b 40 04             	mov    0x4(%eax),%eax
   33f7e:	89 45 d4             	mov    %eax,-0x2c(%ebp)
   33f81:	83 7d e4 00          	cmpl   $0x0,-0x1c(%ebp)
   33f85:	74 07                	je     33f8e <dump_msg+0x9d>
   33f87:	b9 11 63 03 00       	mov    $0x36311,%ecx
   33f8c:	eb 05                	jmp    33f93 <dump_msg+0xa2>
   33f8e:	b9 13 63 03 00       	mov    $0x36313,%ecx
   33f93:	8b 45 0c             	mov    0xc(%ebp),%eax
   33f96:	8b 30                	mov    (%eax),%esi
   33f98:	8b 45 0c             	mov    0xc(%ebp),%eax
   33f9b:	8b 00                	mov    (%eax),%eax
   33f9d:	69 c0 a4 00 00 00    	imul   $0xa4,%eax,%eax
   33fa3:	83 c0 60             	add    $0x60,%eax
   33fa6:	05 60 79 06 00       	add    $0x67960,%eax
   33fab:	8d 58 08             	lea    0x8(%eax),%ebx
   33fae:	83 7d e4 00          	cmpl   $0x0,-0x1c(%ebp)
   33fb2:	74 07                	je     33fbb <dump_msg+0xca>
   33fb4:	b8 0e 63 03 00       	mov    $0x3630e,%eax
   33fb9:	eb 05                	jmp    33fc0 <dump_msg+0xcf>
   33fbb:	b8 13 63 03 00       	mov    $0x36313,%eax
   33fc0:	8b 55 0c             	mov    0xc(%ebp),%edx
   33fc3:	89 7c 24 40          	mov    %edi,0x40(%esp)
   33fc7:	8b 7d b4             	mov    -0x4c(%ebp),%edi
   33fca:	89 7c 24 3c          	mov    %edi,0x3c(%esp)
   33fce:	8b 7d b8             	mov    -0x48(%ebp),%edi
   33fd1:	89 7c 24 38          	mov    %edi,0x38(%esp)
   33fd5:	8b 7d bc             	mov    -0x44(%ebp),%edi
   33fd8:	89 7c 24 34          	mov    %edi,0x34(%esp)
   33fdc:	8b 7d c0             	mov    -0x40(%ebp),%edi
   33fdf:	89 7c 24 30          	mov    %edi,0x30(%esp)
   33fe3:	8b 7d c4             	mov    -0x3c(%ebp),%edi
   33fe6:	89 7c 24 2c          	mov    %edi,0x2c(%esp)
   33fea:	8b 7d c8             	mov    -0x38(%ebp),%edi
   33fed:	89 7c 24 28          	mov    %edi,0x28(%esp)
   33ff1:	8b 7d cc             	mov    -0x34(%ebp),%edi
   33ff4:	89 7c 24 24          	mov    %edi,0x24(%esp)
   33ff8:	8b 7d d0             	mov    -0x30(%ebp),%edi
   33ffb:	89 7c 24 20          	mov    %edi,0x20(%esp)
   33fff:	8b 7d d4             	mov    -0x2c(%ebp),%edi
   34002:	89 7c 24 1c          	mov    %edi,0x1c(%esp)
   34006:	89 4c 24 18          	mov    %ecx,0x18(%esp)
   3400a:	89 74 24 14          	mov    %esi,0x14(%esp)
   3400e:	89 5c 24 10          	mov    %ebx,0x10(%esp)
   34012:	89 44 24 0c          	mov    %eax,0xc(%esp)
   34016:	89 54 24 08          	mov    %edx,0x8(%esp)
   3401a:	8b 45 08             	mov    0x8(%ebp),%eax
   3401d:	89 44 24 04          	mov    %eax,0x4(%esp)
   34021:	c7 04 24 20 63 03 00 	movl   $0x36320,(%esp)
   34028:	e8 67 09 00 00       	call   34994 <printf>
   3402d:	81 c4 9c 00 00 00    	add    $0x9c,%esp
   34033:	5b                   	pop    %ebx
   34034:	5e                   	pop    %esi
   34035:	5f                   	pop    %edi
   34036:	5d                   	pop    %ebp
   34037:	c3                   	ret    

00034038 <task_tty>:
   34038:	55                   	push   %ebp
   34039:	89 e5                	mov    %esp,%ebp
   3403b:	83 ec 58             	sub    $0x58,%esp
   3403e:	e8 b4 d4 ff ff       	call   314f7 <init_keyboard>
   34043:	8d 45 c4             	lea    -0x3c(%ebp),%eax
   34046:	89 04 24             	mov    %eax,(%esp)
   34049:	e8 ee e7 ff ff       	call   3283c <reset_msg>
   3404e:	c7 45 f4 c0 63 06 00 	movl   $0x663c0,-0xc(%ebp)
   34055:	eb 12                	jmp    34069 <task_tty+0x31>
   34057:	8b 45 f4             	mov    -0xc(%ebp),%eax
   3405a:	89 04 24             	mov    %eax,(%esp)
   3405d:	e8 97 00 00 00       	call   340f9 <init_tty>
   34062:	81 45 f4 10 04 00 00 	addl   $0x410,-0xc(%ebp)
   34069:	81 7d f4 f0 6f 06 00 	cmpl   $0x66ff0,-0xc(%ebp)
   34070:	72 e5                	jb     34057 <task_tty+0x1f>
   34072:	c7 04 24 00 00 00 00 	movl   $0x0,(%esp)
   34079:	e8 51 08 00 00       	call   348cf <select_console>
   3407e:	8d 45 c4             	lea    -0x3c(%ebp),%eax
   34081:	89 44 24 08          	mov    %eax,0x8(%esp)
   34085:	c7 44 24 04 12 00 00 	movl   $0x12,0x4(%esp)
   3408c:	00 
   3408d:	c7 04 24 02 00 00 00 	movl   $0x2,(%esp)
   34094:	e8 02 e6 ff ff       	call   3269b <send_recv>
   34099:	c7 45 f4 c0 63 06 00 	movl   $0x663c0,-0xc(%ebp)
   340a0:	eb 1d                	jmp    340bf <task_tty+0x87>
   340a2:	8b 45 f4             	mov    -0xc(%ebp),%eax
   340a5:	89 04 24             	mov    %eax,(%esp)
   340a8:	e8 15 02 00 00       	call   342c2 <tty_do_read>
   340ad:	8b 45 f4             	mov    -0xc(%ebp),%eax
   340b0:	89 04 24             	mov    %eax,(%esp)
   340b3:	e8 32 02 00 00       	call   342ea <tty_do_write>
   340b8:	81 45 f4 10 04 00 00 	addl   $0x410,-0xc(%ebp)
   340bf:	81 7d f4 f0 6f 06 00 	cmpl   $0x66ff0,-0xc(%ebp)
   340c6:	72 da                	jb     340a2 <task_tty+0x6a>
   340c8:	c7 45 f4 c0 63 06 00 	movl   $0x663c0,-0xc(%ebp)
   340cf:	eb 1d                	jmp    340ee <task_tty+0xb6>
   340d1:	8b 45 f4             	mov    -0xc(%ebp),%eax
   340d4:	89 04 24             	mov    %eax,(%esp)
   340d7:	e8 e6 01 00 00       	call   342c2 <tty_do_read>
   340dc:	8b 45 f4             	mov    -0xc(%ebp),%eax
   340df:	89 04 24             	mov    %eax,(%esp)
   340e2:	e8 03 02 00 00       	call   342ea <tty_do_write>
   340e7:	81 45 f4 10 04 00 00 	addl   $0x410,-0xc(%ebp)
   340ee:	81 7d f4 f0 6f 06 00 	cmpl   $0x66ff0,-0xc(%ebp)
   340f5:	72 da                	jb     340d1 <task_tty+0x99>
   340f7:	eb 85                	jmp    3407e <task_tty+0x46>

000340f9 <init_tty>:
   340f9:	55                   	push   %ebp
   340fa:	89 e5                	mov    %esp,%ebp
   340fc:	83 ec 18             	sub    $0x18,%esp
   340ff:	8b 45 08             	mov    0x8(%ebp),%eax
   34102:	c7 80 08 04 00 00 00 	movl   $0x0,0x408(%eax)
   34109:	00 00 00 
   3410c:	8b 55 08             	mov    0x8(%ebp),%edx
   3410f:	8b 45 08             	mov    0x8(%ebp),%eax
   34112:	89 90 04 04 00 00    	mov    %edx,0x404(%eax)
   34118:	8b 45 08             	mov    0x8(%ebp),%eax
   3411b:	8b 90 04 04 00 00    	mov    0x404(%eax),%edx
   34121:	8b 45 08             	mov    0x8(%ebp),%eax
   34124:	89 90 00 04 00 00    	mov    %edx,0x400(%eax)
   3412a:	8b 45 08             	mov    0x8(%ebp),%eax
   3412d:	89 04 24             	mov    %eax,(%esp)
   34130:	e8 37 04 00 00       	call   3456c <init_screen>
   34135:	c9                   	leave  
   34136:	c3                   	ret    

00034137 <in_process>:
   34137:	55                   	push   %ebp
   34138:	89 e5                	mov    %esp,%ebp
   3413a:	83 ec 28             	sub    $0x28,%esp
   3413d:	c6 45 f2 00          	movb   $0x0,-0xe(%ebp)
   34141:	c6 45 f3 00          	movb   $0x0,-0xd(%ebp)
   34145:	8b 45 0c             	mov    0xc(%ebp),%eax
   34148:	25 00 01 00 00       	and    $0x100,%eax
   3414d:	85 c0                	test   %eax,%eax
   3414f:	75 17                	jne    34168 <in_process+0x31>
   34151:	8b 45 0c             	mov    0xc(%ebp),%eax
   34154:	89 44 24 04          	mov    %eax,0x4(%esp)
   34158:	8b 45 08             	mov    0x8(%ebp),%eax
   3415b:	89 04 24             	mov    %eax,(%esp)
   3415e:	e8 f0 00 00 00       	call   34253 <put_key>
   34163:	e9 e9 00 00 00       	jmp    34251 <in_process+0x11a>
   34168:	8b 45 0c             	mov    0xc(%ebp),%eax
   3416b:	25 ff 01 00 00       	and    $0x1ff,%eax
   34170:	89 45 f4             	mov    %eax,-0xc(%ebp)
   34173:	8b 45 f4             	mov    -0xc(%ebp),%eax
   34176:	2d 03 01 00 00       	sub    $0x103,%eax
   3417b:	83 f8 23             	cmp    $0x23,%eax
   3417e:	0f 87 cd 00 00 00    	ja     34251 <in_process+0x11a>
   34184:	8b 04 85 70 63 03 00 	mov    0x36370(,%eax,4),%eax
   3418b:	ff e0                	jmp    *%eax
   3418d:	c7 44 24 04 0a 00 00 	movl   $0xa,0x4(%esp)
   34194:	00 
   34195:	8b 45 08             	mov    0x8(%ebp),%eax
   34198:	89 04 24             	mov    %eax,(%esp)
   3419b:	e8 b3 00 00 00       	call   34253 <put_key>
   341a0:	e9 ac 00 00 00       	jmp    34251 <in_process+0x11a>
   341a5:	c7 44 24 04 08 00 00 	movl   $0x8,0x4(%esp)
   341ac:	00 
   341ad:	8b 45 08             	mov    0x8(%ebp),%eax
   341b0:	89 04 24             	mov    %eax,(%esp)
   341b3:	e8 9b 00 00 00       	call   34253 <put_key>
   341b8:	e9 94 00 00 00       	jmp    34251 <in_process+0x11a>
   341bd:	8b 45 0c             	mov    0xc(%ebp),%eax
   341c0:	25 00 02 00 00       	and    $0x200,%eax
   341c5:	85 c0                	test   %eax,%eax
   341c7:	75 0c                	jne    341d5 <in_process+0x9e>
   341c9:	8b 45 0c             	mov    0xc(%ebp),%eax
   341cc:	25 00 04 00 00       	and    $0x400,%eax
   341d1:	85 c0                	test   %eax,%eax
   341d3:	74 78                	je     3424d <in_process+0x116>
   341d5:	8b 45 08             	mov    0x8(%ebp),%eax
   341d8:	8b 80 0c 04 00 00    	mov    0x40c(%eax),%eax
   341de:	c7 44 24 04 ff ff ff 	movl   $0xffffffff,0x4(%esp)
   341e5:	ff 
   341e6:	89 04 24             	mov    %eax,(%esp)
   341e9:	e8 2b 07 00 00       	call   34919 <scroll_screen>
   341ee:	eb 61                	jmp    34251 <in_process+0x11a>
   341f0:	8b 45 0c             	mov    0xc(%ebp),%eax
   341f3:	25 00 02 00 00       	and    $0x200,%eax
   341f8:	85 c0                	test   %eax,%eax
   341fa:	75 0c                	jne    34208 <in_process+0xd1>
   341fc:	8b 45 0c             	mov    0xc(%ebp),%eax
   341ff:	25 00 04 00 00       	and    $0x400,%eax
   34204:	85 c0                	test   %eax,%eax
   34206:	74 48                	je     34250 <in_process+0x119>
   34208:	8b 45 08             	mov    0x8(%ebp),%eax
   3420b:	8b 80 0c 04 00 00    	mov    0x40c(%eax),%eax
   34211:	c7 44 24 04 01 00 00 	movl   $0x1,0x4(%esp)
   34218:	00 
   34219:	89 04 24             	mov    %eax,(%esp)
   3421c:	e8 f8 06 00 00       	call   34919 <scroll_screen>
   34221:	eb 2e                	jmp    34251 <in_process+0x11a>
   34223:	8b 45 0c             	mov    0xc(%ebp),%eax
   34226:	25 00 20 00 00       	and    $0x2000,%eax
   3422b:	85 c0                	test   %eax,%eax
   3422d:	75 0c                	jne    3423b <in_process+0x104>
   3422f:	8b 45 0c             	mov    0xc(%ebp),%eax
   34232:	25 00 40 00 00       	and    $0x4000,%eax
   34237:	85 c0                	test   %eax,%eax
   34239:	74 16                	je     34251 <in_process+0x11a>
   3423b:	8b 45 f4             	mov    -0xc(%ebp),%eax
   3423e:	2d 11 01 00 00       	sub    $0x111,%eax
   34243:	89 04 24             	mov    %eax,(%esp)
   34246:	e8 84 06 00 00       	call   348cf <select_console>
   3424b:	eb 04                	jmp    34251 <in_process+0x11a>
   3424d:	90                   	nop
   3424e:	eb 01                	jmp    34251 <in_process+0x11a>
   34250:	90                   	nop
   34251:	c9                   	leave  
   34252:	c3                   	ret    

00034253 <put_key>:
   34253:	55                   	push   %ebp
   34254:	89 e5                	mov    %esp,%ebp
   34256:	8b 45 08             	mov    0x8(%ebp),%eax
   34259:	8b 80 08 04 00 00    	mov    0x408(%eax),%eax
   3425f:	3d ff 00 00 00       	cmp    $0xff,%eax
   34264:	7f 5a                	jg     342c0 <put_key+0x6d>
   34266:	8b 45 08             	mov    0x8(%ebp),%eax
   34269:	8b 80 00 04 00 00    	mov    0x400(%eax),%eax
   3426f:	8b 55 0c             	mov    0xc(%ebp),%edx
   34272:	89 10                	mov    %edx,(%eax)
   34274:	8b 45 08             	mov    0x8(%ebp),%eax
   34277:	8b 80 00 04 00 00    	mov    0x400(%eax),%eax
   3427d:	8d 50 04             	lea    0x4(%eax),%edx
   34280:	8b 45 08             	mov    0x8(%ebp),%eax
   34283:	89 90 00 04 00 00    	mov    %edx,0x400(%eax)
   34289:	8b 45 08             	mov    0x8(%ebp),%eax
   3428c:	8b 80 00 04 00 00    	mov    0x400(%eax),%eax
   34292:	8b 55 08             	mov    0x8(%ebp),%edx
   34295:	81 c2 00 04 00 00    	add    $0x400,%edx
   3429b:	39 d0                	cmp    %edx,%eax
   3429d:	75 0c                	jne    342ab <put_key+0x58>
   3429f:	8b 55 08             	mov    0x8(%ebp),%edx
   342a2:	8b 45 08             	mov    0x8(%ebp),%eax
   342a5:	89 90 00 04 00 00    	mov    %edx,0x400(%eax)
   342ab:	8b 45 08             	mov    0x8(%ebp),%eax
   342ae:	8b 80 08 04 00 00    	mov    0x408(%eax),%eax
   342b4:	8d 50 01             	lea    0x1(%eax),%edx
   342b7:	8b 45 08             	mov    0x8(%ebp),%eax
   342ba:	89 90 08 04 00 00    	mov    %edx,0x408(%eax)
   342c0:	5d                   	pop    %ebp
   342c1:	c3                   	ret    

000342c2 <tty_do_read>:
   342c2:	55                   	push   %ebp
   342c3:	89 e5                	mov    %esp,%ebp
   342c5:	83 ec 18             	sub    $0x18,%esp
   342c8:	8b 45 08             	mov    0x8(%ebp),%eax
   342cb:	8b 80 0c 04 00 00    	mov    0x40c(%eax),%eax
   342d1:	89 04 24             	mov    %eax,(%esp)
   342d4:	e8 ca 03 00 00       	call   346a3 <is_current_console>
   342d9:	85 c0                	test   %eax,%eax
   342db:	74 0b                	je     342e8 <tty_do_read+0x26>
   342dd:	8b 45 08             	mov    0x8(%ebp),%eax
   342e0:	89 04 24             	mov    %eax,(%esp)
   342e3:	e8 b4 d2 ff ff       	call   3159c <keyboard_read>
   342e8:	c9                   	leave  
   342e9:	c3                   	ret    

000342ea <tty_do_write>:
   342ea:	55                   	push   %ebp
   342eb:	89 e5                	mov    %esp,%ebp
   342ed:	83 ec 28             	sub    $0x28,%esp
   342f0:	8b 45 08             	mov    0x8(%ebp),%eax
   342f3:	8b 80 08 04 00 00    	mov    0x408(%eax),%eax
   342f9:	85 c0                	test   %eax,%eax
   342fb:	74 73                	je     34370 <tty_do_write+0x86>
   342fd:	8b 45 08             	mov    0x8(%ebp),%eax
   34300:	8b 80 04 04 00 00    	mov    0x404(%eax),%eax
   34306:	8b 00                	mov    (%eax),%eax
   34308:	88 45 f7             	mov    %al,-0x9(%ebp)
   3430b:	8b 45 08             	mov    0x8(%ebp),%eax
   3430e:	8b 80 04 04 00 00    	mov    0x404(%eax),%eax
   34314:	8d 50 04             	lea    0x4(%eax),%edx
   34317:	8b 45 08             	mov    0x8(%ebp),%eax
   3431a:	89 90 04 04 00 00    	mov    %edx,0x404(%eax)
   34320:	8b 45 08             	mov    0x8(%ebp),%eax
   34323:	8b 80 04 04 00 00    	mov    0x404(%eax),%eax
   34329:	8b 55 08             	mov    0x8(%ebp),%edx
   3432c:	81 c2 00 04 00 00    	add    $0x400,%edx
   34332:	39 d0                	cmp    %edx,%eax
   34334:	75 0c                	jne    34342 <tty_do_write+0x58>
   34336:	8b 55 08             	mov    0x8(%ebp),%edx
   34339:	8b 45 08             	mov    0x8(%ebp),%eax
   3433c:	89 90 04 04 00 00    	mov    %edx,0x404(%eax)
   34342:	8b 45 08             	mov    0x8(%ebp),%eax
   34345:	8b 80 08 04 00 00    	mov    0x408(%eax),%eax
   3434b:	8d 50 ff             	lea    -0x1(%eax),%edx
   3434e:	8b 45 08             	mov    0x8(%ebp),%eax
   34351:	89 90 08 04 00 00    	mov    %edx,0x408(%eax)
   34357:	0f be 55 f7          	movsbl -0x9(%ebp),%edx
   3435b:	8b 45 08             	mov    0x8(%ebp),%eax
   3435e:	8b 80 0c 04 00 00    	mov    0x40c(%eax),%eax
   34364:	89 54 24 04          	mov    %edx,0x4(%esp)
   34368:	89 04 24             	mov    %eax,(%esp)
   3436b:	e8 4e 03 00 00       	call   346be <out_char>
   34370:	c9                   	leave  
   34371:	c3                   	ret    

00034372 <tty_write>:
   34372:	55                   	push   %ebp
   34373:	89 e5                	mov    %esp,%ebp
   34375:	83 ec 28             	sub    $0x28,%esp
   34378:	8b 45 0c             	mov    0xc(%ebp),%eax
   3437b:	89 45 f0             	mov    %eax,-0x10(%ebp)
   3437e:	8b 45 10             	mov    0x10(%ebp),%eax
   34381:	89 45 f4             	mov    %eax,-0xc(%ebp)
   34384:	eb 26                	jmp    343ac <tty_write+0x3a>
   34386:	8b 45 f0             	mov    -0x10(%ebp),%eax
   34389:	0f b6 00             	movzbl (%eax),%eax
   3438c:	0f be d0             	movsbl %al,%edx
   3438f:	83 45 f0 01          	addl   $0x1,-0x10(%ebp)
   34393:	8b 45 08             	mov    0x8(%ebp),%eax
   34396:	8b 80 0c 04 00 00    	mov    0x40c(%eax),%eax
   3439c:	89 54 24 04          	mov    %edx,0x4(%esp)
   343a0:	89 04 24             	mov    %eax,(%esp)
   343a3:	e8 16 03 00 00       	call   346be <out_char>
   343a8:	83 6d f4 01          	subl   $0x1,-0xc(%ebp)
   343ac:	83 7d f4 00          	cmpl   $0x0,-0xc(%ebp)
   343b0:	75 d4                	jne    34386 <tty_write+0x14>
   343b2:	c9                   	leave  
   343b3:	c3                   	ret    

000343b4 <sys_printx>:
   343b4:	55                   	push   %ebp
   343b5:	89 e5                	mov    %esp,%ebp
   343b7:	83 ec 58             	sub    $0x58,%esp
   343ba:	c7 45 bc 3f 20 6b 5f 	movl   $0x5f6b203f,-0x44(%ebp)
   343c1:	c7 45 c0 72 65 65 6e 	movl   $0x6e656572,-0x40(%ebp)
   343c8:	c7 45 c4 74 65 72 20 	movl   $0x20726574,-0x3c(%ebp)
   343cf:	c7 45 c8 69 73 20 69 	movl   $0x69207369,-0x38(%ebp)
   343d6:	c7 45 cc 6e 63 6f 72 	movl   $0x726f636e,-0x34(%ebp)
   343dd:	c7 45 d0 72 65 63 74 	movl   $0x74636572,-0x30(%ebp)
   343e4:	c7 45 d4 20 66 6f 72 	movl   $0x726f6620,-0x2c(%ebp)
   343eb:	c7 45 d8 20 75 6e 6b 	movl   $0x6b6e7520,-0x28(%ebp)
   343f2:	c7 45 dc 6e 6f 77 6e 	movl   $0x6e776f6e,-0x24(%ebp)
   343f9:	c7 45 e0 20 72 65 61 	movl   $0x61657220,-0x20(%ebp)
   34400:	c7 45 e4 73 6f 6e 00 	movl   $0x6e6f73,-0x1c(%ebp)
   34407:	c6 45 bc 02          	movb   $0x2,-0x44(%ebp)
   3440b:	a1 84 5f 06 00       	mov    0x65f84,%eax
   34410:	85 c0                	test   %eax,%eax
   34412:	75 2b                	jne    3443f <sys_printx+0x8b>
   34414:	8b 55 14             	mov    0x14(%ebp),%edx
   34417:	b8 60 79 06 00       	mov    $0x67960,%eax
   3441c:	89 d1                	mov    %edx,%ecx
   3441e:	29 c1                	sub    %eax,%ecx
   34420:	89 c8                	mov    %ecx,%eax
   34422:	c1 f8 02             	sar    $0x2,%eax
   34425:	69 c0 19 9c 8f c1    	imul   $0xc18f9c19,%eax,%eax
   3442b:	8b 55 10             	mov    0x10(%ebp),%edx
   3442e:	89 54 24 04          	mov    %edx,0x4(%esp)
   34432:	89 04 24             	mov    %eax,(%esp)
   34435:	e8 8c e3 ff ff       	call   327c6 <va2la>
   3443a:	89 45 e8             	mov    %eax,-0x18(%ebp)
   3443d:	eb 17                	jmp    34456 <sys_printx+0xa2>
   3443f:	a1 84 5f 06 00       	mov    0x65f84,%eax
   34444:	85 c0                	test   %eax,%eax
   34446:	74 08                	je     34450 <sys_printx+0x9c>
   34448:	8b 45 10             	mov    0x10(%ebp),%eax
   3444b:	89 45 e8             	mov    %eax,-0x18(%ebp)
   3444e:	eb 06                	jmp    34456 <sys_printx+0xa2>
   34450:	8d 45 bc             	lea    -0x44(%ebp),%eax
   34453:	89 45 e8             	mov    %eax,-0x18(%ebp)
   34456:	8b 45 e8             	mov    -0x18(%ebp),%eax
   34459:	0f b6 00             	movzbl (%eax),%eax
   3445c:	3c 02                	cmp    $0x2,%al
   3445e:	74 1e                	je     3447e <sys_printx+0xca>
   34460:	8b 45 e8             	mov    -0x18(%ebp),%eax
   34463:	0f b6 00             	movzbl (%eax),%eax
   34466:	3c 03                	cmp    $0x3,%al
   34468:	0f 85 dc 00 00 00    	jne    3454a <sys_printx+0x196>
   3446e:	a1 40 79 06 00       	mov    0x67940,%eax
   34473:	3d 38 7d 06 00       	cmp    $0x67d38,%eax
   34478:	0f 83 cc 00 00 00    	jae    3454a <sys_printx+0x196>
   3447e:	e8 7b c5 ff ff       	call   309fe <disable_int>
   34483:	c7 45 f0 00 80 0b 00 	movl   $0xb8000,-0x10(%ebp)
   3448a:	8b 45 e8             	mov    -0x18(%ebp),%eax
   3448d:	83 c0 01             	add    $0x1,%eax
   34490:	89 45 f4             	mov    %eax,-0xc(%ebp)
   34493:	eb 6e                	jmp    34503 <sys_printx+0x14f>
   34495:	8b 45 f4             	mov    -0xc(%ebp),%eax
   34498:	0f b6 10             	movzbl (%eax),%edx
   3449b:	8b 45 f0             	mov    -0x10(%ebp),%eax
   3449e:	88 10                	mov    %dl,(%eax)
   344a0:	83 45 f0 01          	addl   $0x1,-0x10(%ebp)
   344a4:	83 45 f4 01          	addl   $0x1,-0xc(%ebp)
   344a8:	8b 45 f0             	mov    -0x10(%ebp),%eax
   344ab:	c6 00 0d             	movb   $0xd,(%eax)
   344ae:	83 45 f0 01          	addl   $0x1,-0x10(%ebp)
   344b2:	8b 45 f4             	mov    -0xc(%ebp),%eax
   344b5:	0f b6 00             	movzbl (%eax),%eax
   344b8:	84 c0                	test   %al,%al
   344ba:	75 47                	jne    34503 <sys_printx+0x14f>
   344bc:	eb 0e                	jmp    344cc <sys_printx+0x118>
   344be:	83 45 f0 01          	addl   $0x1,-0x10(%ebp)
   344c2:	8b 45 f0             	mov    -0x10(%ebp),%eax
   344c5:	c6 00 08             	movb   $0x8,(%eax)
   344c8:	83 45 f0 01          	addl   $0x1,-0x10(%ebp)
   344cc:	8b 45 f0             	mov    -0x10(%ebp),%eax
   344cf:	8d 88 00 80 f4 ff    	lea    -0xb8000(%eax),%ecx
   344d5:	ba 67 66 66 66       	mov    $0x66666667,%edx
   344da:	89 c8                	mov    %ecx,%eax
   344dc:	f7 ea                	imul   %edx
   344de:	c1 fa 09             	sar    $0x9,%edx
   344e1:	89 c8                	mov    %ecx,%eax
   344e3:	c1 f8 1f             	sar    $0x1f,%eax
   344e6:	29 c2                	sub    %eax,%edx
   344e8:	89 d0                	mov    %edx,%eax
   344ea:	c1 e0 02             	shl    $0x2,%eax
   344ed:	01 d0                	add    %edx,%eax
   344ef:	c1 e0 08             	shl    $0x8,%eax
   344f2:	89 ca                	mov    %ecx,%edx
   344f4:	29 c2                	sub    %eax,%edx
   344f6:	85 d2                	test   %edx,%edx
   344f8:	75 c4                	jne    344be <sys_printx+0x10a>
   344fa:	8b 45 e8             	mov    -0x18(%ebp),%eax
   344fd:	83 c0 01             	add    $0x1,%eax
   34500:	89 45 f4             	mov    %eax,-0xc(%ebp)
   34503:	81 7d f0 ff ff 0b 00 	cmpl   $0xbffff,-0x10(%ebp)
   3450a:	76 89                	jbe    34495 <sys_printx+0xe1>
   3450c:	f4                   	hlt    
   3450d:	eb 3b                	jmp    3454a <sys_printx+0x196>
   3450f:	80 7d ef 02          	cmpb   $0x2,-0x11(%ebp)
   34513:	74 31                	je     34546 <sys_printx+0x192>
   34515:	80 7d ef 03          	cmpb   $0x3,-0x11(%ebp)
   34519:	74 2e                	je     34549 <sys_printx+0x195>
   3451b:	0f be 55 ef          	movsbl -0x11(%ebp),%edx
   3451f:	8b 45 14             	mov    0x14(%ebp),%eax
   34522:	8b 80 a0 00 00 00    	mov    0xa0(%eax),%eax
   34528:	c1 e0 04             	shl    $0x4,%eax
   3452b:	89 c1                	mov    %eax,%ecx
   3452d:	c1 e1 06             	shl    $0x6,%ecx
   34530:	01 c8                	add    %ecx,%eax
   34532:	8b 80 cc 67 06 00    	mov    0x667cc(%eax),%eax
   34538:	89 54 24 04          	mov    %edx,0x4(%esp)
   3453c:	89 04 24             	mov    %eax,(%esp)
   3453f:	e8 7a 01 00 00       	call   346be <out_char>
   34544:	eb 04                	jmp    3454a <sys_printx+0x196>
   34546:	90                   	nop
   34547:	eb 01                	jmp    3454a <sys_printx+0x196>
   34549:	90                   	nop
   3454a:	8b 45 e8             	mov    -0x18(%ebp),%eax
   3454d:	0f b6 00             	movzbl (%eax),%eax
   34550:	88 45 ef             	mov    %al,-0x11(%ebp)
   34553:	80 7d ef 00          	cmpb   $0x0,-0x11(%ebp)
   34557:	0f 95 c0             	setne  %al
   3455a:	83 45 e8 01          	addl   $0x1,-0x18(%ebp)
   3455e:	84 c0                	test   %al,%al
   34560:	75 ad                	jne    3450f <sys_printx+0x15b>
   34562:	b8 00 00 00 00       	mov    $0x0,%eax
   34567:	c9                   	leave  
   34568:	c3                   	ret    
   34569:	90                   	nop
   3456a:	90                   	nop
   3456b:	90                   	nop

0003456c <init_screen>:
   3456c:	55                   	push   %ebp
   3456d:	89 e5                	mov    %esp,%ebp
   3456f:	83 ec 28             	sub    $0x28,%esp
   34572:	8b 55 08             	mov    0x8(%ebp),%edx
   34575:	b8 c0 63 06 00       	mov    $0x663c0,%eax
   3457a:	89 d1                	mov    %edx,%ecx
   3457c:	29 c1                	sub    %eax,%ecx
   3457e:	89 c8                	mov    %ecx,%eax
   34580:	c1 f8 04             	sar    $0x4,%eax
   34583:	69 c0 c1 0f fc c0    	imul   $0xc0fc0fc1,%eax,%eax
   34589:	89 45 ec             	mov    %eax,-0x14(%ebp)
   3458c:	8b 45 ec             	mov    -0x14(%ebp),%eax
   3458f:	c1 e0 04             	shl    $0x4,%eax
   34592:	8d 90 c0 78 06 00    	lea    0x678c0(%eax),%edx
   34598:	8b 45 08             	mov    0x8(%ebp),%eax
   3459b:	89 90 0c 04 00 00    	mov    %edx,0x40c(%eax)
   345a1:	c7 45 f0 00 40 00 00 	movl   $0x4000,-0x10(%ebp)
   345a8:	8b 4d f0             	mov    -0x10(%ebp),%ecx
   345ab:	ba 56 55 55 55       	mov    $0x55555556,%edx
   345b0:	89 c8                	mov    %ecx,%eax
   345b2:	f7 ea                	imul   %edx
   345b4:	89 c8                	mov    %ecx,%eax
   345b6:	c1 f8 1f             	sar    $0x1f,%eax
   345b9:	89 d1                	mov    %edx,%ecx
   345bb:	29 c1                	sub    %eax,%ecx
   345bd:	89 c8                	mov    %ecx,%eax
   345bf:	89 45 f4             	mov    %eax,-0xc(%ebp)
   345c2:	8b 45 08             	mov    0x8(%ebp),%eax
   345c5:	8b 80 0c 04 00 00    	mov    0x40c(%eax),%eax
   345cb:	8b 55 ec             	mov    -0x14(%ebp),%edx
   345ce:	0f af 55 f4          	imul   -0xc(%ebp),%edx
   345d2:	89 50 04             	mov    %edx,0x4(%eax)
   345d5:	8b 45 08             	mov    0x8(%ebp),%eax
   345d8:	8b 80 0c 04 00 00    	mov    0x40c(%eax),%eax
   345de:	8b 55 f4             	mov    -0xc(%ebp),%edx
   345e1:	89 50 08             	mov    %edx,0x8(%eax)
   345e4:	8b 45 08             	mov    0x8(%ebp),%eax
   345e7:	8b 80 0c 04 00 00    	mov    0x40c(%eax),%eax
   345ed:	8b 55 08             	mov    0x8(%ebp),%edx
   345f0:	8b 92 0c 04 00 00    	mov    0x40c(%edx),%edx
   345f6:	8b 52 04             	mov    0x4(%edx),%edx
   345f9:	89 10                	mov    %edx,(%eax)
   345fb:	8b 45 08             	mov    0x8(%ebp),%eax
   345fe:	8b 80 0c 04 00 00    	mov    0x40c(%eax),%eax
   34604:	8b 55 08             	mov    0x8(%ebp),%edx
   34607:	8b 92 0c 04 00 00    	mov    0x40c(%edx),%edx
   3460d:	8b 52 04             	mov    0x4(%edx),%edx
   34610:	89 50 0c             	mov    %edx,0xc(%eax)
   34613:	83 7d ec 00          	cmpl   $0x0,-0x14(%ebp)
   34617:	75 27                	jne    34640 <init_screen+0xd4>
   34619:	8b 45 08             	mov    0x8(%ebp),%eax
   3461c:	8b 90 0c 04 00 00    	mov    0x40c(%eax),%edx
   34622:	a1 74 70 06 00       	mov    0x67074,%eax
   34627:	89 c1                	mov    %eax,%ecx
   34629:	c1 e9 1f             	shr    $0x1f,%ecx
   3462c:	8d 04 01             	lea    (%ecx,%eax,1),%eax
   3462f:	d1 f8                	sar    %eax
   34631:	89 42 0c             	mov    %eax,0xc(%edx)
   34634:	c7 05 74 70 06 00 00 	movl   $0x0,0x67074
   3463b:	00 00 00 
   3463e:	eb 37                	jmp    34677 <init_screen+0x10b>
   34640:	8b 45 ec             	mov    -0x14(%ebp),%eax
   34643:	83 c0 30             	add    $0x30,%eax
   34646:	0f be d0             	movsbl %al,%edx
   34649:	8b 45 08             	mov    0x8(%ebp),%eax
   3464c:	8b 80 0c 04 00 00    	mov    0x40c(%eax),%eax
   34652:	89 54 24 04          	mov    %edx,0x4(%esp)
   34656:	89 04 24             	mov    %eax,(%esp)
   34659:	e8 60 00 00 00       	call   346be <out_char>
   3465e:	8b 45 08             	mov    0x8(%ebp),%eax
   34661:	8b 80 0c 04 00 00    	mov    0x40c(%eax),%eax
   34667:	c7 44 24 04 23 00 00 	movl   $0x23,0x4(%esp)
   3466e:	00 
   3466f:	89 04 24             	mov    %eax,(%esp)
   34672:	e8 47 00 00 00       	call   346be <out_char>
   34677:	8b 45 08             	mov    0x8(%ebp),%eax
   3467a:	8b 80 0c 04 00 00    	mov    0x40c(%eax),%eax
   34680:	8b 40 0c             	mov    0xc(%eax),%eax
   34683:	89 04 24             	mov    %eax,(%esp)
   34686:	e8 72 01 00 00       	call   347fd <set_cursor>
   3468b:	c9                   	leave  
   3468c:	c3                   	ret    

0003468d <flush>:
   3468d:	55                   	push   %ebp
   3468e:	89 e5                	mov    %esp,%ebp
   34690:	83 ec 18             	sub    $0x18,%esp
   34693:	8b 45 08             	mov    0x8(%ebp),%eax
   34696:	8b 40 0c             	mov    0xc(%eax),%eax
   34699:	89 04 24             	mov    %eax,(%esp)
   3469c:	e8 5c 01 00 00       	call   347fd <set_cursor>
   346a1:	c9                   	leave  
   346a2:	c3                   	ret    

000346a3 <is_current_console>:
   346a3:	55                   	push   %ebp
   346a4:	89 e5                	mov    %esp,%ebp
   346a6:	a1 70 70 06 00       	mov    0x67070,%eax
   346ab:	c1 e0 04             	shl    $0x4,%eax
   346ae:	05 c0 78 06 00       	add    $0x678c0,%eax
   346b3:	3b 45 08             	cmp    0x8(%ebp),%eax
   346b6:	0f 94 c0             	sete   %al
   346b9:	0f b6 c0             	movzbl %al,%eax
   346bc:	5d                   	pop    %ebp
   346bd:	c3                   	ret    

000346be <out_char>:
   346be:	55                   	push   %ebp
   346bf:	89 e5                	mov    %esp,%ebp
   346c1:	53                   	push   %ebx
   346c2:	83 ec 44             	sub    $0x44,%esp
   346c5:	8b 45 0c             	mov    0xc(%ebp),%eax
   346c8:	88 45 e4             	mov    %al,-0x1c(%ebp)
   346cb:	8b 45 08             	mov    0x8(%ebp),%eax
   346ce:	8b 40 0c             	mov    0xc(%eax),%eax
   346d1:	05 00 c0 05 00       	add    $0x5c000,%eax
   346d6:	01 c0                	add    %eax,%eax
   346d8:	89 45 f4             	mov    %eax,-0xc(%ebp)
   346db:	0f be 45 e4          	movsbl -0x1c(%ebp),%eax
   346df:	83 f8 08             	cmp    $0x8,%eax
   346e2:	74 65                	je     34749 <out_char+0x8b>
   346e4:	83 f8 0a             	cmp    $0xa,%eax
   346e7:	0f 85 8f 00 00 00    	jne    3477c <out_char+0xbe>
   346ed:	8b 45 08             	mov    0x8(%ebp),%eax
   346f0:	8b 50 0c             	mov    0xc(%eax),%edx
   346f3:	8b 45 08             	mov    0x8(%ebp),%eax
   346f6:	8b 48 04             	mov    0x4(%eax),%ecx
   346f9:	8b 45 08             	mov    0x8(%ebp),%eax
   346fc:	8b 40 08             	mov    0x8(%eax),%eax
   346ff:	8d 04 01             	lea    (%ecx,%eax,1),%eax
   34702:	83 e8 50             	sub    $0x50,%eax
   34705:	39 c2                	cmp    %eax,%edx
   34707:	73 3e                	jae    34747 <out_char+0x89>
   34709:	8b 45 08             	mov    0x8(%ebp),%eax
   3470c:	8b 48 04             	mov    0x4(%eax),%ecx
   3470f:	8b 45 08             	mov    0x8(%ebp),%eax
   34712:	8b 50 0c             	mov    0xc(%eax),%edx
   34715:	8b 45 08             	mov    0x8(%ebp),%eax
   34718:	8b 40 04             	mov    0x4(%eax),%eax
   3471b:	89 d3                	mov    %edx,%ebx
   3471d:	29 c3                	sub    %eax,%ebx
   3471f:	89 5d d4             	mov    %ebx,-0x2c(%ebp)
   34722:	ba cd cc cc cc       	mov    $0xcccccccd,%edx
   34727:	8b 45 d4             	mov    -0x2c(%ebp),%eax
   3472a:	f7 e2                	mul    %edx
   3472c:	89 d0                	mov    %edx,%eax
   3472e:	c1 e8 06             	shr    $0x6,%eax
   34731:	8d 50 01             	lea    0x1(%eax),%edx
   34734:	89 d0                	mov    %edx,%eax
   34736:	c1 e0 02             	shl    $0x2,%eax
   34739:	01 d0                	add    %edx,%eax
   3473b:	c1 e0 04             	shl    $0x4,%eax
   3473e:	8d 14 01             	lea    (%ecx,%eax,1),%edx
   34741:	8b 45 08             	mov    0x8(%ebp),%eax
   34744:	89 50 0c             	mov    %edx,0xc(%eax)
   34747:	eb 77                	jmp    347c0 <out_char+0x102>
   34749:	8b 45 08             	mov    0x8(%ebp),%eax
   3474c:	8b 50 0c             	mov    0xc(%eax),%edx
   3474f:	8b 45 08             	mov    0x8(%ebp),%eax
   34752:	8b 40 04             	mov    0x4(%eax),%eax
   34755:	39 c2                	cmp    %eax,%edx
   34757:	76 21                	jbe    3477a <out_char+0xbc>
   34759:	8b 45 08             	mov    0x8(%ebp),%eax
   3475c:	8b 40 0c             	mov    0xc(%eax),%eax
   3475f:	8d 50 ff             	lea    -0x1(%eax),%edx
   34762:	8b 45 08             	mov    0x8(%ebp),%eax
   34765:	89 50 0c             	mov    %edx,0xc(%eax)
   34768:	8b 45 f4             	mov    -0xc(%ebp),%eax
   3476b:	83 e8 02             	sub    $0x2,%eax
   3476e:	c6 00 20             	movb   $0x20,(%eax)
   34771:	8b 45 f4             	mov    -0xc(%ebp),%eax
   34774:	83 e8 01             	sub    $0x1,%eax
   34777:	c6 00 07             	movb   $0x7,(%eax)
   3477a:	eb 44                	jmp    347c0 <out_char+0x102>
   3477c:	8b 45 08             	mov    0x8(%ebp),%eax
   3477f:	8b 50 0c             	mov    0xc(%eax),%edx
   34782:	8b 45 08             	mov    0x8(%ebp),%eax
   34785:	8b 48 04             	mov    0x4(%eax),%ecx
   34788:	8b 45 08             	mov    0x8(%ebp),%eax
   3478b:	8b 40 08             	mov    0x8(%eax),%eax
   3478e:	8d 04 01             	lea    (%ecx,%eax,1),%eax
   34791:	83 e8 01             	sub    $0x1,%eax
   34794:	39 c2                	cmp    %eax,%edx
   34796:	73 3f                	jae    347d7 <out_char+0x119>
   34798:	0f b6 55 e4          	movzbl -0x1c(%ebp),%edx
   3479c:	8b 45 f4             	mov    -0xc(%ebp),%eax
   3479f:	88 10                	mov    %dl,(%eax)
   347a1:	83 45 f4 01          	addl   $0x1,-0xc(%ebp)
   347a5:	8b 45 f4             	mov    -0xc(%ebp),%eax
   347a8:	c6 00 07             	movb   $0x7,(%eax)
   347ab:	83 45 f4 01          	addl   $0x1,-0xc(%ebp)
   347af:	8b 45 08             	mov    0x8(%ebp),%eax
   347b2:	8b 40 0c             	mov    0xc(%eax),%eax
   347b5:	8d 50 01             	lea    0x1(%eax),%edx
   347b8:	8b 45 08             	mov    0x8(%ebp),%eax
   347bb:	89 50 0c             	mov    %edx,0xc(%eax)
   347be:	eb 18                	jmp    347d8 <out_char+0x11a>
   347c0:	eb 16                	jmp    347d8 <out_char+0x11a>
   347c2:	c7 44 24 04 ff ff ff 	movl   $0xffffffff,0x4(%esp)
   347c9:	ff 
   347ca:	8b 45 08             	mov    0x8(%ebp),%eax
   347cd:	89 04 24             	mov    %eax,(%esp)
   347d0:	e8 44 01 00 00       	call   34919 <scroll_screen>
   347d5:	eb 01                	jmp    347d8 <out_char+0x11a>
   347d7:	90                   	nop
   347d8:	8b 45 08             	mov    0x8(%ebp),%eax
   347db:	8b 50 0c             	mov    0xc(%eax),%edx
   347de:	8b 45 08             	mov    0x8(%ebp),%eax
   347e1:	8b 00                	mov    (%eax),%eax
   347e3:	05 d0 07 00 00       	add    $0x7d0,%eax
   347e8:	39 c2                	cmp    %eax,%edx
   347ea:	73 d6                	jae    347c2 <out_char+0x104>
   347ec:	8b 45 08             	mov    0x8(%ebp),%eax
   347ef:	89 04 24             	mov    %eax,(%esp)
   347f2:	e8 96 fe ff ff       	call   3468d <flush>
   347f7:	83 c4 44             	add    $0x44,%esp
   347fa:	5b                   	pop    %ebx
   347fb:	5d                   	pop    %ebp
   347fc:	c3                   	ret    

000347fd <set_cursor>:
   347fd:	55                   	push   %ebp
   347fe:	89 e5                	mov    %esp,%ebp
   34800:	83 ec 18             	sub    $0x18,%esp
   34803:	e8 f6 c1 ff ff       	call   309fe <disable_int>
   34808:	c7 44 24 04 0e 00 00 	movl   $0xe,0x4(%esp)
   3480f:	00 
   34810:	c7 04 24 d4 03 00 00 	movl   $0x3d4,(%esp)
   34817:	e8 78 c1 ff ff       	call   30994 <out_byte>
   3481c:	8b 45 08             	mov    0x8(%ebp),%eax
   3481f:	c1 e8 08             	shr    $0x8,%eax
   34822:	0f b6 c0             	movzbl %al,%eax
   34825:	89 44 24 04          	mov    %eax,0x4(%esp)
   34829:	c7 04 24 d5 03 00 00 	movl   $0x3d5,(%esp)
   34830:	e8 5f c1 ff ff       	call   30994 <out_byte>
   34835:	c7 44 24 04 0f 00 00 	movl   $0xf,0x4(%esp)
   3483c:	00 
   3483d:	c7 04 24 d4 03 00 00 	movl   $0x3d4,(%esp)
   34844:	e8 4b c1 ff ff       	call   30994 <out_byte>
   34849:	8b 45 08             	mov    0x8(%ebp),%eax
   3484c:	0f b6 c0             	movzbl %al,%eax
   3484f:	89 44 24 04          	mov    %eax,0x4(%esp)
   34853:	c7 04 24 d5 03 00 00 	movl   $0x3d5,(%esp)
   3485a:	e8 35 c1 ff ff       	call   30994 <out_byte>
   3485f:	e8 9c c1 ff ff       	call   30a00 <enable_int>
   34864:	c9                   	leave  
   34865:	c3                   	ret    

00034866 <set_video_start_addr>:
   34866:	55                   	push   %ebp
   34867:	89 e5                	mov    %esp,%ebp
   34869:	83 ec 18             	sub    $0x18,%esp
   3486c:	e8 8d c1 ff ff       	call   309fe <disable_int>
   34871:	c7 44 24 04 0c 00 00 	movl   $0xc,0x4(%esp)
   34878:	00 
   34879:	c7 04 24 d4 03 00 00 	movl   $0x3d4,(%esp)
   34880:	e8 0f c1 ff ff       	call   30994 <out_byte>
   34885:	8b 45 08             	mov    0x8(%ebp),%eax
   34888:	c1 e8 08             	shr    $0x8,%eax
   3488b:	0f b6 c0             	movzbl %al,%eax
   3488e:	89 44 24 04          	mov    %eax,0x4(%esp)
   34892:	c7 04 24 d5 03 00 00 	movl   $0x3d5,(%esp)
   34899:	e8 f6 c0 ff ff       	call   30994 <out_byte>
   3489e:	c7 44 24 04 0d 00 00 	movl   $0xd,0x4(%esp)
   348a5:	00 
   348a6:	c7 04 24 d4 03 00 00 	movl   $0x3d4,(%esp)
   348ad:	e8 e2 c0 ff ff       	call   30994 <out_byte>
   348b2:	8b 45 08             	mov    0x8(%ebp),%eax
   348b5:	0f b6 c0             	movzbl %al,%eax
   348b8:	89 44 24 04          	mov    %eax,0x4(%esp)
   348bc:	c7 04 24 d5 03 00 00 	movl   $0x3d5,(%esp)
   348c3:	e8 cc c0 ff ff       	call   30994 <out_byte>
   348c8:	e8 33 c1 ff ff       	call   30a00 <enable_int>
   348cd:	c9                   	leave  
   348ce:	c3                   	ret    

000348cf <select_console>:
   348cf:	55                   	push   %ebp
   348d0:	89 e5                	mov    %esp,%ebp
   348d2:	83 ec 18             	sub    $0x18,%esp
   348d5:	83 7d 08 00          	cmpl   $0x0,0x8(%ebp)
   348d9:	78 38                	js     34913 <select_console+0x44>
   348db:	83 7d 08 02          	cmpl   $0x2,0x8(%ebp)
   348df:	7f 35                	jg     34916 <select_console+0x47>
   348e1:	8b 45 08             	mov    0x8(%ebp),%eax
   348e4:	a3 70 70 06 00       	mov    %eax,0x67070
   348e9:	8b 45 08             	mov    0x8(%ebp),%eax
   348ec:	c1 e0 04             	shl    $0x4,%eax
   348ef:	8b 80 cc 78 06 00    	mov    0x678cc(%eax),%eax
   348f5:	89 04 24             	mov    %eax,(%esp)
   348f8:	e8 00 ff ff ff       	call   347fd <set_cursor>
   348fd:	8b 45 08             	mov    0x8(%ebp),%eax
   34900:	c1 e0 04             	shl    $0x4,%eax
   34903:	8b 80 c0 78 06 00    	mov    0x678c0(%eax),%eax
   34909:	89 04 24             	mov    %eax,(%esp)
   3490c:	e8 55 ff ff ff       	call   34866 <set_video_start_addr>
   34911:	eb 04                	jmp    34917 <select_console+0x48>
   34913:	90                   	nop
   34914:	eb 01                	jmp    34917 <select_console+0x48>
   34916:	90                   	nop
   34917:	c9                   	leave  
   34918:	c3                   	ret    

00034919 <scroll_screen>:
   34919:	55                   	push   %ebp
   3491a:	89 e5                	mov    %esp,%ebp
   3491c:	83 ec 18             	sub    $0x18,%esp
   3491f:	83 7d 0c 01          	cmpl   $0x1,0xc(%ebp)
   34923:	75 1e                	jne    34943 <scroll_screen+0x2a>
   34925:	8b 45 08             	mov    0x8(%ebp),%eax
   34928:	8b 10                	mov    (%eax),%edx
   3492a:	8b 45 08             	mov    0x8(%ebp),%eax
   3492d:	8b 40 04             	mov    0x4(%eax),%eax
   34930:	39 c2                	cmp    %eax,%edx
   34932:	76 42                	jbe    34976 <scroll_screen+0x5d>
   34934:	8b 45 08             	mov    0x8(%ebp),%eax
   34937:	8b 00                	mov    (%eax),%eax
   34939:	8d 50 b0             	lea    -0x50(%eax),%edx
   3493c:	8b 45 08             	mov    0x8(%ebp),%eax
   3493f:	89 10                	mov    %edx,(%eax)
   34941:	eb 34                	jmp    34977 <scroll_screen+0x5e>
   34943:	83 7d 0c ff          	cmpl   $0xffffffff,0xc(%ebp)
   34947:	75 2e                	jne    34977 <scroll_screen+0x5e>
   34949:	8b 45 08             	mov    0x8(%ebp),%eax
   3494c:	8b 00                	mov    (%eax),%eax
   3494e:	8d 88 d0 07 00 00    	lea    0x7d0(%eax),%ecx
   34954:	8b 45 08             	mov    0x8(%ebp),%eax
   34957:	8b 50 04             	mov    0x4(%eax),%edx
   3495a:	8b 45 08             	mov    0x8(%ebp),%eax
   3495d:	8b 40 08             	mov    0x8(%eax),%eax
   34960:	8d 04 02             	lea    (%edx,%eax,1),%eax
   34963:	39 c1                	cmp    %eax,%ecx
   34965:	73 10                	jae    34977 <scroll_screen+0x5e>
   34967:	8b 45 08             	mov    0x8(%ebp),%eax
   3496a:	8b 00                	mov    (%eax),%eax
   3496c:	8d 50 50             	lea    0x50(%eax),%edx
   3496f:	8b 45 08             	mov    0x8(%ebp),%eax
   34972:	89 10                	mov    %edx,(%eax)
   34974:	eb 01                	jmp    34977 <scroll_screen+0x5e>
   34976:	90                   	nop
   34977:	8b 45 08             	mov    0x8(%ebp),%eax
   3497a:	8b 00                	mov    (%eax),%eax
   3497c:	89 04 24             	mov    %eax,(%esp)
   3497f:	e8 e2 fe ff ff       	call   34866 <set_video_start_addr>
   34984:	8b 45 08             	mov    0x8(%ebp),%eax
   34987:	8b 40 0c             	mov    0xc(%eax),%eax
   3498a:	89 04 24             	mov    %eax,(%esp)
   3498d:	e8 6b fe ff ff       	call   347fd <set_cursor>
   34992:	c9                   	leave  
   34993:	c3                   	ret    

00034994 <printf>:
   34994:	55                   	push   %ebp
   34995:	89 e5                	mov    %esp,%ebp
   34997:	81 ec 28 01 00 00    	sub    $0x128,%esp
   3499d:	8d 45 08             	lea    0x8(%ebp),%eax
   349a0:	83 c0 04             	add    $0x4,%eax
   349a3:	89 45 f4             	mov    %eax,-0xc(%ebp)
   349a6:	8b 45 08             	mov    0x8(%ebp),%eax
   349a9:	8b 55 f4             	mov    -0xc(%ebp),%edx
   349ac:	89 54 24 08          	mov    %edx,0x8(%esp)
   349b0:	89 44 24 04          	mov    %eax,0x4(%esp)
   349b4:	8d 85 f0 fe ff ff    	lea    -0x110(%ebp),%eax
   349ba:	89 04 24             	mov    %eax,(%esp)
   349bd:	e8 8d 00 00 00       	call   34a4f <vsprintf>
   349c2:	89 45 f0             	mov    %eax,-0x10(%ebp)
   349c5:	8b 45 f0             	mov    -0x10(%ebp),%eax
   349c8:	c6 84 05 f0 fe ff ff 	movb   $0x0,-0x110(%ebp,%eax,1)
   349cf:	00 
   349d0:	8d 85 f0 fe ff ff    	lea    -0x110(%ebp),%eax
   349d6:	89 04 24             	mov    %eax,(%esp)
   349d9:	e8 42 da ff ff       	call   32420 <printx>
   349de:	8b 45 f0             	mov    -0x10(%ebp),%eax
   349e1:	c9                   	leave  
   349e2:	c3                   	ret    
   349e3:	90                   	nop

000349e4 <i2a>:
   349e4:	55                   	push   %ebp
   349e5:	89 e5                	mov    %esp,%ebp
   349e7:	83 ec 28             	sub    $0x28,%esp
   349ea:	8b 45 08             	mov    0x8(%ebp),%eax
   349ed:	89 c2                	mov    %eax,%edx
   349ef:	c1 fa 1f             	sar    $0x1f,%edx
   349f2:	f7 7d 0c             	idivl  0xc(%ebp)
   349f5:	89 55 f0             	mov    %edx,-0x10(%ebp)
   349f8:	8b 45 08             	mov    0x8(%ebp),%eax
   349fb:	89 c2                	mov    %eax,%edx
   349fd:	c1 fa 1f             	sar    $0x1f,%edx
   34a00:	f7 7d 0c             	idivl  0xc(%ebp)
   34a03:	89 45 f4             	mov    %eax,-0xc(%ebp)
   34a06:	83 7d f4 00          	cmpl   $0x0,-0xc(%ebp)
   34a0a:	74 19                	je     34a25 <i2a+0x41>
   34a0c:	8b 45 10             	mov    0x10(%ebp),%eax
   34a0f:	89 44 24 08          	mov    %eax,0x8(%esp)
   34a13:	8b 45 0c             	mov    0xc(%ebp),%eax
   34a16:	89 44 24 04          	mov    %eax,0x4(%esp)
   34a1a:	8b 45 f4             	mov    -0xc(%ebp),%eax
   34a1d:	89 04 24             	mov    %eax,(%esp)
   34a20:	e8 bf ff ff ff       	call   349e4 <i2a>
   34a25:	8b 45 10             	mov    0x10(%ebp),%eax
   34a28:	8b 10                	mov    (%eax),%edx
   34a2a:	83 7d f0 09          	cmpl   $0x9,-0x10(%ebp)
   34a2e:	7f 08                	jg     34a38 <i2a+0x54>
   34a30:	8b 45 f0             	mov    -0x10(%ebp),%eax
   34a33:	83 c0 30             	add    $0x30,%eax
   34a36:	eb 06                	jmp    34a3e <i2a+0x5a>
   34a38:	8b 45 f0             	mov    -0x10(%ebp),%eax
   34a3b:	83 c0 37             	add    $0x37,%eax
   34a3e:	88 02                	mov    %al,(%edx)
   34a40:	83 c2 01             	add    $0x1,%edx
   34a43:	8b 45 10             	mov    0x10(%ebp),%eax
   34a46:	89 10                	mov    %edx,(%eax)
   34a48:	8b 45 10             	mov    0x10(%ebp),%eax
   34a4b:	8b 00                	mov    (%eax),%eax
   34a4d:	c9                   	leave  
   34a4e:	c3                   	ret    

00034a4f <vsprintf>:
   34a4f:	55                   	push   %ebp
   34a50:	89 e5                	mov    %esp,%ebp
   34a52:	53                   	push   %ebx
   34a53:	81 ec 34 04 00 00    	sub    $0x434,%esp
   34a59:	8b 45 10             	mov    0x10(%ebp),%eax
   34a5c:	89 45 e4             	mov    %eax,-0x1c(%ebp)
   34a5f:	8b 45 08             	mov    0x8(%ebp),%eax
   34a62:	89 45 e0             	mov    %eax,-0x20(%ebp)
   34a65:	e9 43 02 00 00       	jmp    34cad <vsprintf+0x25e>
   34a6a:	8b 45 0c             	mov    0xc(%ebp),%eax
   34a6d:	0f b6 00             	movzbl (%eax),%eax
   34a70:	3c 25                	cmp    $0x25,%al
   34a72:	74 14                	je     34a88 <vsprintf+0x39>
   34a74:	8b 45 0c             	mov    0xc(%ebp),%eax
   34a77:	0f b6 10             	movzbl (%eax),%edx
   34a7a:	8b 45 e0             	mov    -0x20(%ebp),%eax
   34a7d:	88 10                	mov    %dl,(%eax)
   34a7f:	83 45 e0 01          	addl   $0x1,-0x20(%ebp)
   34a83:	e9 21 02 00 00       	jmp    34ca9 <vsprintf+0x25a>
   34a88:	c7 45 f0 00 00 00 00 	movl   $0x0,-0x10(%ebp)
   34a8f:	83 45 0c 01          	addl   $0x1,0xc(%ebp)
   34a93:	8b 45 0c             	mov    0xc(%ebp),%eax
   34a96:	0f b6 00             	movzbl (%eax),%eax
   34a99:	3c 25                	cmp    $0x25,%al
   34a9b:	75 14                	jne    34ab1 <vsprintf+0x62>
   34a9d:	8b 45 0c             	mov    0xc(%ebp),%eax
   34aa0:	0f b6 10             	movzbl (%eax),%edx
   34aa3:	8b 45 e0             	mov    -0x20(%ebp),%eax
   34aa6:	88 10                	mov    %dl,(%eax)
   34aa8:	83 45 e0 01          	addl   $0x1,-0x20(%ebp)
   34aac:	e9 f8 01 00 00       	jmp    34ca9 <vsprintf+0x25a>
   34ab1:	8b 45 0c             	mov    0xc(%ebp),%eax
   34ab4:	0f b6 00             	movzbl (%eax),%eax
   34ab7:	3c 30                	cmp    $0x30,%al
   34ab9:	75 0a                	jne    34ac5 <vsprintf+0x76>
   34abb:	c6 45 ef 30          	movb   $0x30,-0x11(%ebp)
   34abf:	83 45 0c 01          	addl   $0x1,0xc(%ebp)
   34ac3:	eb 28                	jmp    34aed <vsprintf+0x9e>
   34ac5:	c6 45 ef 20          	movb   $0x20,-0x11(%ebp)
   34ac9:	eb 22                	jmp    34aed <vsprintf+0x9e>
   34acb:	8b 55 f0             	mov    -0x10(%ebp),%edx
   34ace:	89 d0                	mov    %edx,%eax
   34ad0:	c1 e0 02             	shl    $0x2,%eax
   34ad3:	01 d0                	add    %edx,%eax
   34ad5:	01 c0                	add    %eax,%eax
   34ad7:	89 45 f0             	mov    %eax,-0x10(%ebp)
   34ada:	8b 45 0c             	mov    0xc(%ebp),%eax
   34add:	0f b6 00             	movzbl (%eax),%eax
   34ae0:	0f be c0             	movsbl %al,%eax
   34ae3:	83 e8 30             	sub    $0x30,%eax
   34ae6:	01 45 f0             	add    %eax,-0x10(%ebp)
   34ae9:	83 45 0c 01          	addl   $0x1,0xc(%ebp)
   34aed:	8b 45 0c             	mov    0xc(%ebp),%eax
   34af0:	0f b6 00             	movzbl (%eax),%eax
   34af3:	3c 2f                	cmp    $0x2f,%al
   34af5:	76 0a                	jbe    34b01 <vsprintf+0xb2>
   34af7:	8b 45 0c             	mov    0xc(%ebp),%eax
   34afa:	0f b6 00             	movzbl (%eax),%eax
   34afd:	3c 39                	cmp    $0x39,%al
   34aff:	76 ca                	jbe    34acb <vsprintf+0x7c>
   34b01:	8d 85 e0 fb ff ff    	lea    -0x420(%ebp),%eax
   34b07:	89 85 dc fb ff ff    	mov    %eax,-0x424(%ebp)
   34b0d:	8b 85 dc fb ff ff    	mov    -0x424(%ebp),%eax
   34b13:	c7 44 24 08 00 04 00 	movl   $0x400,0x8(%esp)
   34b1a:	00 
   34b1b:	c7 44 24 04 00 00 00 	movl   $0x0,0x4(%esp)
   34b22:	00 
   34b23:	89 04 24             	mov    %eax,(%esp)
   34b26:	e8 34 bf ff ff       	call   30a5f <memset>
   34b2b:	8b 45 0c             	mov    0xc(%ebp),%eax
   34b2e:	0f b6 00             	movzbl (%eax),%eax
   34b31:	0f be c0             	movsbl %al,%eax
   34b34:	83 f8 64             	cmp    $0x64,%eax
   34b37:	74 6d                	je     34ba6 <vsprintf+0x157>
   34b39:	83 f8 64             	cmp    $0x64,%eax
   34b3c:	7f 0a                	jg     34b48 <vsprintf+0xf9>
   34b3e:	83 f8 63             	cmp    $0x63,%eax
   34b41:	74 18                	je     34b5b <vsprintf+0x10c>
   34b43:	e9 db 00 00 00       	jmp    34c23 <vsprintf+0x1d4>
   34b48:	83 f8 73             	cmp    $0x73,%eax
   34b4b:	0f 84 9b 00 00 00    	je     34bec <vsprintf+0x19d>
   34b51:	83 f8 78             	cmp    $0x78,%eax
   34b54:	74 25                	je     34b7b <vsprintf+0x12c>
   34b56:	e9 c8 00 00 00       	jmp    34c23 <vsprintf+0x1d4>
   34b5b:	8b 85 dc fb ff ff    	mov    -0x424(%ebp),%eax
   34b61:	8b 55 e4             	mov    -0x1c(%ebp),%edx
   34b64:	0f b6 12             	movzbl (%edx),%edx
   34b67:	88 10                	mov    %dl,(%eax)
   34b69:	83 c0 01             	add    $0x1,%eax
   34b6c:	89 85 dc fb ff ff    	mov    %eax,-0x424(%ebp)
   34b72:	83 45 e4 04          	addl   $0x4,-0x1c(%ebp)
   34b76:	e9 a8 00 00 00       	jmp    34c23 <vsprintf+0x1d4>
   34b7b:	8b 45 e4             	mov    -0x1c(%ebp),%eax
   34b7e:	8b 00                	mov    (%eax),%eax
   34b80:	89 45 e8             	mov    %eax,-0x18(%ebp)
   34b83:	8d 85 dc fb ff ff    	lea    -0x424(%ebp),%eax
   34b89:	89 44 24 08          	mov    %eax,0x8(%esp)
   34b8d:	c7 44 24 04 10 00 00 	movl   $0x10,0x4(%esp)
   34b94:	00 
   34b95:	8b 45 e8             	mov    -0x18(%ebp),%eax
   34b98:	89 04 24             	mov    %eax,(%esp)
   34b9b:	e8 44 fe ff ff       	call   349e4 <i2a>
   34ba0:	83 45 e4 04          	addl   $0x4,-0x1c(%ebp)
   34ba4:	eb 7d                	jmp    34c23 <vsprintf+0x1d4>
   34ba6:	8b 45 e4             	mov    -0x1c(%ebp),%eax
   34ba9:	8b 00                	mov    (%eax),%eax
   34bab:	89 45 e8             	mov    %eax,-0x18(%ebp)
   34bae:	83 7d e8 00          	cmpl   $0x0,-0x18(%ebp)
   34bb2:	79 15                	jns    34bc9 <vsprintf+0x17a>
   34bb4:	f7 5d e8             	negl   -0x18(%ebp)
   34bb7:	8b 85 dc fb ff ff    	mov    -0x424(%ebp),%eax
   34bbd:	c6 00 2d             	movb   $0x2d,(%eax)
   34bc0:	83 c0 01             	add    $0x1,%eax
   34bc3:	89 85 dc fb ff ff    	mov    %eax,-0x424(%ebp)
   34bc9:	8d 85 dc fb ff ff    	lea    -0x424(%ebp),%eax
   34bcf:	89 44 24 08          	mov    %eax,0x8(%esp)
   34bd3:	c7 44 24 04 0a 00 00 	movl   $0xa,0x4(%esp)
   34bda:	00 
   34bdb:	8b 45 e8             	mov    -0x18(%ebp),%eax
   34bde:	89 04 24             	mov    %eax,(%esp)
   34be1:	e8 fe fd ff ff       	call   349e4 <i2a>
   34be6:	83 45 e4 04          	addl   $0x4,-0x1c(%ebp)
   34bea:	eb 37                	jmp    34c23 <vsprintf+0x1d4>
   34bec:	8b 45 e4             	mov    -0x1c(%ebp),%eax
   34bef:	8b 10                	mov    (%eax),%edx
   34bf1:	8b 85 dc fb ff ff    	mov    -0x424(%ebp),%eax
   34bf7:	89 54 24 04          	mov    %edx,0x4(%esp)
   34bfb:	89 04 24             	mov    %eax,(%esp)
   34bfe:	e8 83 be ff ff       	call   30a86 <strcpy>
   34c03:	8b 9d dc fb ff ff    	mov    -0x424(%ebp),%ebx
   34c09:	8b 45 e4             	mov    -0x1c(%ebp),%eax
   34c0c:	8b 00                	mov    (%eax),%eax
   34c0e:	89 04 24             	mov    %eax,(%esp)
   34c11:	e8 88 be ff ff       	call   30a9e <strlen>
   34c16:	8d 04 03             	lea    (%ebx,%eax,1),%eax
   34c19:	89 85 dc fb ff ff    	mov    %eax,-0x424(%ebp)
   34c1f:	83 45 e4 04          	addl   $0x4,-0x1c(%ebp)
   34c23:	c7 45 f4 00 00 00 00 	movl   $0x0,-0xc(%ebp)
   34c2a:	eb 11                	jmp    34c3d <vsprintf+0x1ee>
   34c2c:	8b 45 e0             	mov    -0x20(%ebp),%eax
   34c2f:	0f b6 55 ef          	movzbl -0x11(%ebp),%edx
   34c33:	88 10                	mov    %dl,(%eax)
   34c35:	83 45 e0 01          	addl   $0x1,-0x20(%ebp)
   34c39:	83 45 f4 01          	addl   $0x1,-0xc(%ebp)
   34c3d:	8d 85 e0 fb ff ff    	lea    -0x420(%ebp),%eax
   34c43:	89 04 24             	mov    %eax,(%esp)
   34c46:	e8 53 be ff ff       	call   30a9e <strlen>
   34c4b:	3b 45 f0             	cmp    -0x10(%ebp),%eax
   34c4e:	7d 19                	jge    34c69 <vsprintf+0x21a>
   34c50:	8d 85 e0 fb ff ff    	lea    -0x420(%ebp),%eax
   34c56:	89 04 24             	mov    %eax,(%esp)
   34c59:	e8 40 be ff ff       	call   30a9e <strlen>
   34c5e:	8b 55 f0             	mov    -0x10(%ebp),%edx
   34c61:	89 d1                	mov    %edx,%ecx
   34c63:	29 c1                	sub    %eax,%ecx
   34c65:	89 c8                	mov    %ecx,%eax
   34c67:	eb 05                	jmp    34c6e <vsprintf+0x21f>
   34c69:	b8 00 00 00 00       	mov    $0x0,%eax
   34c6e:	3b 45 f4             	cmp    -0xc(%ebp),%eax
   34c71:	7f b9                	jg     34c2c <vsprintf+0x1dd>
   34c73:	8d 85 e0 fb ff ff    	lea    -0x420(%ebp),%eax
   34c79:	89 85 dc fb ff ff    	mov    %eax,-0x424(%ebp)
   34c7f:	eb 1b                	jmp    34c9c <vsprintf+0x24d>
   34c81:	8b 85 dc fb ff ff    	mov    -0x424(%ebp),%eax
   34c87:	0f b6 08             	movzbl (%eax),%ecx
   34c8a:	8b 55 e0             	mov    -0x20(%ebp),%edx
   34c8d:	88 0a                	mov    %cl,(%edx)
   34c8f:	83 45 e0 01          	addl   $0x1,-0x20(%ebp)
   34c93:	83 c0 01             	add    $0x1,%eax
   34c96:	89 85 dc fb ff ff    	mov    %eax,-0x424(%ebp)
   34c9c:	8b 85 dc fb ff ff    	mov    -0x424(%ebp),%eax
   34ca2:	0f b6 00             	movzbl (%eax),%eax
   34ca5:	84 c0                	test   %al,%al
   34ca7:	75 d8                	jne    34c81 <vsprintf+0x232>
   34ca9:	83 45 0c 01          	addl   $0x1,0xc(%ebp)
   34cad:	8b 45 0c             	mov    0xc(%ebp),%eax
   34cb0:	0f b6 00             	movzbl (%eax),%eax
   34cb3:	84 c0                	test   %al,%al
   34cb5:	0f 85 af fd ff ff    	jne    34a6a <vsprintf+0x1b>
   34cbb:	8b 45 e0             	mov    -0x20(%ebp),%eax
   34cbe:	c6 00 00             	movb   $0x0,(%eax)
   34cc1:	8b 55 e0             	mov    -0x20(%ebp),%edx
   34cc4:	8b 45 08             	mov    0x8(%ebp),%eax
   34cc7:	89 d1                	mov    %edx,%ecx
   34cc9:	29 c1                	sub    %eax,%ecx
   34ccb:	89 c8                	mov    %ecx,%eax
   34ccd:	81 c4 34 04 00 00    	add    $0x434,%esp
   34cd3:	5b                   	pop    %ebx
   34cd4:	5d                   	pop    %ebp
   34cd5:	c3                   	ret    

00034cd6 <sprintf>:
   34cd6:	55                   	push   %ebp
   34cd7:	89 e5                	mov    %esp,%ebp
   34cd9:	83 ec 28             	sub    $0x28,%esp
   34cdc:	8d 45 0c             	lea    0xc(%ebp),%eax
   34cdf:	83 c0 04             	add    $0x4,%eax
   34ce2:	89 45 f4             	mov    %eax,-0xc(%ebp)
   34ce5:	8b 45 0c             	mov    0xc(%ebp),%eax
   34ce8:	8b 55 f4             	mov    -0xc(%ebp),%edx
   34ceb:	89 54 24 08          	mov    %edx,0x8(%esp)
   34cef:	89 44 24 04          	mov    %eax,0x4(%esp)
   34cf3:	8b 45 08             	mov    0x8(%ebp),%eax
   34cf6:	89 04 24             	mov    %eax,(%esp)
   34cf9:	e8 51 fd ff ff       	call   34a4f <vsprintf>
   34cfe:	c9                   	leave  
   34cff:	c3                   	ret    

00034d00 <task_sys>:
   34d00:	55                   	push   %ebp
   34d01:	89 e5                	mov    %esp,%ebp
   34d03:	83 ec 58             	sub    $0x58,%esp
   34d06:	eb 01                	jmp    34d09 <task_sys+0x9>
   34d08:	90                   	nop
   34d09:	c7 45 f0 00 00 00 00 	movl   $0x0,-0x10(%ebp)
   34d10:	8d 45 c0             	lea    -0x40(%ebp),%eax
   34d13:	89 04 24             	mov    %eax,(%esp)
   34d16:	e8 21 db ff ff       	call   3283c <reset_msg>
   34d1b:	8d 45 c0             	lea    -0x40(%ebp),%eax
   34d1e:	89 44 24 08          	mov    %eax,0x8(%esp)
   34d22:	c7 44 24 04 12 00 00 	movl   $0x12,0x4(%esp)
   34d29:	00 
   34d2a:	c7 04 24 02 00 00 00 	movl   $0x2,(%esp)
   34d31:	e8 65 d9 ff ff       	call   3269b <send_recv>
   34d36:	8b 45 c0             	mov    -0x40(%ebp),%eax
   34d39:	89 45 f4             	mov    %eax,-0xc(%ebp)
   34d3c:	a1 a0 78 06 00       	mov    0x678a0,%eax
   34d41:	89 44 24 08          	mov    %eax,0x8(%esp)
   34d45:	8b 45 f4             	mov    -0xc(%ebp),%eax
   34d48:	89 44 24 04          	mov    %eax,0x4(%esp)
   34d4c:	c7 04 24 00 64 03 00 	movl   $0x36400,(%esp)
   34d53:	e8 3c fc ff ff       	call   34994 <printf>
   34d58:	8b 45 c4             	mov    -0x3c(%ebp),%eax
   34d5b:	83 f8 02             	cmp    $0x2,%eax
   34d5e:	74 0c                	je     34d6c <task_sys+0x6c>
   34d60:	83 f8 03             	cmp    $0x3,%eax
   34d63:	74 1a                	je     34d7f <task_sys+0x7f>
   34d65:	83 f8 01             	cmp    $0x1,%eax
   34d68:	74 28                	je     34d92 <task_sys+0x92>
   34d6a:	eb 3b                	jmp    34da7 <task_sys+0xa7>
   34d6c:	8b 15 84 77 03 00    	mov    0x37784,%edx
   34d72:	8d 45 c0             	lea    -0x40(%ebp),%eax
   34d75:	89 04 24             	mov    %eax,(%esp)
   34d78:	ff d2                	call   *%edx
   34d7a:	89 45 f0             	mov    %eax,-0x10(%ebp)
   34d7d:	eb 3b                	jmp    34dba <task_sys+0xba>
   34d7f:	8b 15 80 77 03 00    	mov    0x37780,%edx
   34d85:	8d 45 c0             	lea    -0x40(%ebp),%eax
   34d88:	89 04 24             	mov    %eax,(%esp)
   34d8b:	ff d2                	call   *%edx
   34d8d:	89 45 f0             	mov    %eax,-0x10(%ebp)
   34d90:	eb 28                	jmp    34dba <task_sys+0xba>
   34d92:	8b 45 c0             	mov    -0x40(%ebp),%eax
   34d95:	89 44 24 04          	mov    %eax,0x4(%esp)
   34d99:	c7 04 24 1e 64 03 00 	movl   $0x3641e,(%esp)
   34da0:	e8 ef fb ff ff       	call   34994 <printf>
   34da5:	eb 13                	jmp    34dba <task_sys+0xba>
   34da7:	8b 45 c0             	mov    -0x40(%ebp),%eax
   34daa:	89 44 24 04          	mov    %eax,0x4(%esp)
   34dae:	c7 04 24 37 64 03 00 	movl   $0x36437,(%esp)
   34db5:	e8 da fb ff ff       	call   34994 <printf>
   34dba:	83 7d f0 00          	cmpl   $0x0,-0x10(%ebp)
   34dbe:	0f 84 44 ff ff ff    	je     34d08 <task_sys+0x8>
   34dc4:	a1 a0 78 06 00       	mov    0x678a0,%eax
   34dc9:	89 44 24 08          	mov    %eax,0x8(%esp)
   34dcd:	8b 45 f4             	mov    -0xc(%ebp),%eax
   34dd0:	89 44 24 04          	mov    %eax,0x4(%esp)
   34dd4:	c7 04 24 50 64 03 00 	movl   $0x36450,(%esp)
   34ddb:	e8 b4 fb ff ff       	call   34994 <printf>
   34de0:	8d 45 c0             	lea    -0x40(%ebp),%eax
   34de3:	89 44 24 08          	mov    %eax,0x8(%esp)
   34de7:	8b 45 f4             	mov    -0xc(%ebp),%eax
   34dea:	89 44 24 04          	mov    %eax,0x4(%esp)
   34dee:	c7 04 24 01 00 00 00 	movl   $0x1,(%esp)
   34df5:	e8 a1 d8 ff ff       	call   3269b <send_recv>
   34dfa:	e9 0a ff ff ff       	jmp    34d09 <task_sys+0x9>

00034dff <do_getticks>:
   34dff:	55                   	push   %ebp
   34e00:	89 e5                	mov    %esp,%ebp
   34e02:	8b 15 a0 78 06 00    	mov    0x678a0,%edx
   34e08:	8b 45 08             	mov    0x8(%ebp),%eax
   34e0b:	89 50 08             	mov    %edx,0x8(%eax)
   34e0e:	b8 01 00 00 00       	mov    $0x1,%eax
   34e13:	5d                   	pop    %ebp
   34e14:	c3                   	ret    

00034e15 <do_settimer>:
   34e15:	55                   	push   %ebp
   34e16:	89 e5                	mov    %esp,%ebp
   34e18:	83 ec 18             	sub    $0x18,%esp
   34e1b:	8b 45 08             	mov    0x8(%ebp),%eax
   34e1e:	8b 40 08             	mov    0x8(%eax),%eax
   34e21:	85 c0                	test   %eax,%eax
   34e23:	7e 1e                	jle    34e43 <do_settimer+0x2e>
   34e25:	8b 45 08             	mov    0x8(%ebp),%eax
   34e28:	8b 50 08             	mov    0x8(%eax),%edx
   34e2b:	a1 a0 78 06 00       	mov    0x678a0,%eax
   34e30:	01 c2                	add    %eax,%edx
   34e32:	8b 45 08             	mov    0x8(%ebp),%eax
   34e35:	89 50 08             	mov    %edx,0x8(%eax)
   34e38:	8b 45 08             	mov    0x8(%ebp),%eax
   34e3b:	89 04 24             	mov    %eax,(%esp)
   34e3e:	e8 3f d4 ff ff       	call   32282 <set_timer>
   34e43:	b8 01 00 00 00       	mov    $0x1,%eax
   34e48:	c9                   	leave  
   34e49:	c3                   	ret    
   34e4a:	90                   	nop
   34e4b:	90                   	nop

00034e4c <spin>:
   34e4c:	55                   	push   %ebp
   34e4d:	89 e5                	mov    %esp,%ebp
   34e4f:	83 ec 18             	sub    $0x18,%esp
   34e52:	8b 45 08             	mov    0x8(%ebp),%eax
   34e55:	89 44 24 04          	mov    %eax,0x4(%esp)
   34e59:	c7 04 24 6c 64 03 00 	movl   $0x3646c,(%esp)
   34e60:	e8 2f fb ff ff       	call   34994 <printf>
   34e65:	eb fe                	jmp    34e65 <spin+0x19>

00034e67 <assertion_failure>:
   34e67:	55                   	push   %ebp
   34e68:	89 e5                	mov    %esp,%ebp
   34e6a:	83 ec 28             	sub    $0x28,%esp
   34e6d:	8b 45 18             	mov    0x18(%ebp),%eax
   34e70:	83 c0 68             	add    $0x68,%eax
   34e73:	89 44 24 14          	mov    %eax,0x14(%esp)
   34e77:	8b 45 14             	mov    0x14(%ebp),%eax
   34e7a:	89 44 24 10          	mov    %eax,0x10(%esp)
   34e7e:	8b 45 10             	mov    0x10(%ebp),%eax
   34e81:	89 44 24 0c          	mov    %eax,0xc(%esp)
   34e85:	8b 45 0c             	mov    0xc(%ebp),%eax
   34e88:	89 44 24 08          	mov    %eax,0x8(%esp)
   34e8c:	8b 45 08             	mov    0x8(%ebp),%eax
   34e8f:	89 44 24 04          	mov    %eax,0x4(%esp)
   34e93:	c7 04 24 84 64 03 00 	movl   $0x36484,(%esp)
   34e9a:	e8 f5 fa ff ff       	call   34994 <printf>
   34e9f:	c9                   	leave  
   34ea0:	c3                   	ret    
   34ea1:	90                   	nop
   34ea2:	90                   	nop
   34ea3:	90                   	nop

00034ea4 <task_hd>:
   34ea4:	55                   	push   %ebp
   34ea5:	89 e5                	mov    %esp,%ebp
   34ea7:	83 ec 58             	sub    $0x58,%esp
   34eaa:	e8 73 00 00 00       	call   34f22 <init_hd>
   34eaf:	8d 45 c4             	lea    -0x3c(%ebp),%eax
   34eb2:	89 44 24 08          	mov    %eax,0x8(%esp)
   34eb6:	c7 44 24 04 12 00 00 	movl   $0x12,0x4(%esp)
   34ebd:	00 
   34ebe:	c7 04 24 02 00 00 00 	movl   $0x2,(%esp)
   34ec5:	e8 d1 d7 ff ff       	call   3269b <send_recv>
   34eca:	8b 45 c4             	mov    -0x3c(%ebp),%eax
   34ecd:	89 45 f4             	mov    %eax,-0xc(%ebp)
   34ed0:	8b 45 c8             	mov    -0x38(%ebp),%eax
   34ed3:	3d e9 03 00 00       	cmp    $0x3e9,%eax
   34ed8:	75 0d                	jne    34ee7 <task_hd+0x43>
   34eda:	8b 45 d8             	mov    -0x28(%ebp),%eax
   34edd:	89 04 24             	mov    %eax,(%esp)
   34ee0:	e8 0b 01 00 00       	call   34ff0 <hd_open>
   34ee5:	eb 1f                	jmp    34f06 <task_hd+0x62>
   34ee7:	8d 45 c4             	lea    -0x3c(%ebp),%eax
   34eea:	89 44 24 04          	mov    %eax,0x4(%esp)
   34eee:	c7 04 24 c0 64 03 00 	movl   $0x364c0,(%esp)
   34ef5:	e8 f7 ef ff ff       	call   33ef1 <dump_msg>
   34efa:	c7 04 24 d8 64 03 00 	movl   $0x364d8,(%esp)
   34f01:	e8 46 ff ff ff       	call   34e4c <spin>
   34f06:	8d 45 c4             	lea    -0x3c(%ebp),%eax
   34f09:	89 44 24 08          	mov    %eax,0x8(%esp)
   34f0d:	8b 45 f4             	mov    -0xc(%ebp),%eax
   34f10:	89 44 24 04          	mov    %eax,0x4(%esp)
   34f14:	c7 04 24 01 00 00 00 	movl   $0x1,(%esp)
   34f1b:	e8 7b d7 ff ff       	call   3269b <send_recv>
   34f20:	eb 8d                	jmp    34eaf <task_hd+0xb>

00034f22 <init_hd>:
   34f22:	55                   	push   %ebp
   34f23:	89 e5                	mov    %esp,%ebp
   34f25:	83 ec 38             	sub    $0x38,%esp
   34f28:	c7 45 f4 75 04 00 00 	movl   $0x475,-0xc(%ebp)
   34f2f:	8b 45 f4             	mov    -0xc(%ebp),%eax
   34f32:	0f b6 00             	movzbl (%eax),%eax
   34f35:	0f b6 c0             	movzbl %al,%eax
   34f38:	89 44 24 04          	mov    %eax,0x4(%esp)
   34f3c:	c7 04 24 f9 64 03 00 	movl   $0x364f9,(%esp)
   34f43:	e8 4c fa ff ff       	call   34994 <printf>
   34f48:	8b 45 f4             	mov    -0xc(%ebp),%eax
   34f4b:	0f b6 00             	movzbl (%eax),%eax
   34f4e:	84 c0                	test   %al,%al
   34f50:	75 2d                	jne    34f7f <init_hd+0x5d>
   34f52:	a1 40 79 06 00       	mov    0x67940,%eax
   34f57:	89 44 24 10          	mov    %eax,0x10(%esp)
   34f5b:	c7 44 24 0c 51 00 00 	movl   $0x51,0xc(%esp)
   34f62:	00 
   34f63:	c7 44 24 08 07 65 03 	movl   $0x36507,0x8(%esp)
   34f6a:	00 
   34f6b:	c7 44 24 04 07 65 03 	movl   $0x36507,0x4(%esp)
   34f72:	00 
   34f73:	c7 04 24 13 65 03 00 	movl   $0x36513,(%esp)
   34f7a:	e8 e8 fe ff ff       	call   34e67 <assertion_failure>
   34f7f:	c7 44 24 04 58 59 03 	movl   $0x35958,0x4(%esp)
   34f86:	00 
   34f87:	c7 04 24 0e 00 00 00 	movl   $0xe,(%esp)
   34f8e:	e8 d1 bc ff ff       	call   30c64 <put_irq_handler>
   34f93:	c7 04 24 02 00 00 00 	movl   $0x2,(%esp)
   34f9a:	e8 40 ba ff ff       	call   309df <enable_irq>
   34f9f:	c7 04 24 0e 00 00 00 	movl   $0xe,(%esp)
   34fa6:	e8 34 ba ff ff       	call   309df <enable_irq>
   34fab:	c7 45 f0 00 00 00 00 	movl   $0x0,-0x10(%ebp)
   34fb2:	eb 2a                	jmp    34fde <init_hd+0xbc>
   34fb4:	8b 45 f0             	mov    -0x10(%ebp),%eax
   34fb7:	69 c0 40 03 00 00    	imul   $0x340,%eax,%eax
   34fbd:	05 00 98 03 00       	add    $0x39800,%eax
   34fc2:	c7 44 24 08 40 03 00 	movl   $0x340,0x8(%esp)
   34fc9:	00 
   34fca:	c7 44 24 04 00 00 00 	movl   $0x0,0x4(%esp)
   34fd1:	00 
   34fd2:	89 04 24             	mov    %eax,(%esp)
   34fd5:	e8 85 ba ff ff       	call   30a5f <memset>
   34fda:	83 45 f0 01          	addl   $0x1,-0x10(%ebp)
   34fde:	83 7d f0 00          	cmpl   $0x0,-0x10(%ebp)
   34fe2:	74 d0                	je     34fb4 <init_hd+0x92>
   34fe4:	c7 05 00 98 03 00 00 	movl   $0x0,0x39800
   34feb:	00 00 00 
   34fee:	c9                   	leave  
   34fef:	c3                   	ret    

00034ff0 <hd_open>:
   34ff0:	55                   	push   %ebp
   34ff1:	89 e5                	mov    %esp,%ebp
   34ff3:	53                   	push   %ebx
   34ff4:	83 ec 34             	sub    $0x34,%esp
   34ff7:	83 7d 08 09          	cmpl   $0x9,0x8(%ebp)
   34ffb:	7f 1b                	jg     35018 <hd_open+0x28>
   34ffd:	8b 4d 08             	mov    0x8(%ebp),%ecx
   35000:	ba 67 66 66 66       	mov    $0x66666667,%edx
   35005:	89 c8                	mov    %ecx,%eax
   35007:	f7 ea                	imul   %edx
   35009:	d1 fa                	sar    %edx
   3500b:	89 c8                	mov    %ecx,%eax
   3500d:	c1 f8 1f             	sar    $0x1f,%eax
   35010:	89 d1                	mov    %edx,%ecx
   35012:	29 c1                	sub    %eax,%ecx
   35014:	89 c8                	mov    %ecx,%eax
   35016:	eb 14                	jmp    3502c <hd_open+0x3c>
   35018:	8b 45 08             	mov    0x8(%ebp),%eax
   3501b:	83 e8 10             	sub    $0x10,%eax
   3501e:	89 c2                	mov    %eax,%edx
   35020:	c1 fa 1f             	sar    $0x1f,%edx
   35023:	c1 ea 1a             	shr    $0x1a,%edx
   35026:	8d 04 02             	lea    (%edx,%eax,1),%eax
   35029:	c1 f8 06             	sar    $0x6,%eax
   3502c:	89 45 f4             	mov    %eax,-0xc(%ebp)
   3502f:	83 7d f4 00          	cmpl   $0x0,-0xc(%ebp)
   35033:	74 2d                	je     35062 <hd_open+0x72>
   35035:	a1 40 79 06 00       	mov    0x67940,%eax
   3503a:	89 44 24 10          	mov    %eax,0x10(%esp)
   3503e:	c7 44 24 0c 68 00 00 	movl   $0x68,0xc(%esp)
   35045:	00 
   35046:	c7 44 24 08 07 65 03 	movl   $0x36507,0x8(%esp)
   3504d:	00 
   3504e:	c7 44 24 04 07 65 03 	movl   $0x36507,0x4(%esp)
   35055:	00 
   35056:	c7 04 24 1e 65 03 00 	movl   $0x3651e,(%esp)
   3505d:	e8 05 fe ff ff       	call   34e67 <assertion_failure>
   35062:	8b 45 f4             	mov    -0xc(%ebp),%eax
   35065:	89 04 24             	mov    %eax,(%esp)
   35068:	e8 1f 05 00 00       	call   3558c <hd_identify>
   3506d:	8b 55 f4             	mov    -0xc(%ebp),%edx
   35070:	69 c2 40 03 00 00    	imul   $0x340,%edx,%eax
   35076:	8b 80 00 98 03 00    	mov    0x39800(%eax),%eax
   3507c:	85 c0                	test   %eax,%eax
   3507e:	0f 94 c1             	sete   %cl
   35081:	8d 58 01             	lea    0x1(%eax),%ebx
   35084:	69 c2 40 03 00 00    	imul   $0x340,%edx,%eax
   3508a:	89 98 00 98 03 00    	mov    %ebx,0x39800(%eax)
   35090:	84 c9                	test   %cl,%cl
   35092:	74 30                	je     350c4 <hd_open+0xd4>
   35094:	8b 55 f4             	mov    -0xc(%ebp),%edx
   35097:	89 d0                	mov    %edx,%eax
   35099:	c1 e0 02             	shl    $0x2,%eax
   3509c:	01 d0                	add    %edx,%eax
   3509e:	c7 44 24 04 00 00 00 	movl   $0x0,0x4(%esp)
   350a5:	00 
   350a6:	89 04 24             	mov    %eax,(%esp)
   350a9:	e8 1c 00 00 00       	call   350ca <partition>
   350ae:	8b 45 f4             	mov    -0xc(%ebp),%eax
   350b1:	69 c0 40 03 00 00    	imul   $0x340,%eax,%eax
   350b7:	05 00 98 03 00       	add    $0x39800,%eax
   350bc:	89 04 24             	mov    %eax,(%esp)
   350bf:	e8 4d 03 00 00       	call   35411 <print_hdinfo>
   350c4:	83 c4 34             	add    $0x34,%esp
   350c7:	5b                   	pop    %ebx
   350c8:	5d                   	pop    %ebp
   350c9:	c3                   	ret    

000350ca <partition>:
   350ca:	55                   	push   %ebp
   350cb:	89 e5                	mov    %esp,%ebp
   350cd:	53                   	push   %ebx
   350ce:	81 ec 54 04 00 00    	sub    $0x454,%esp
   350d4:	83 7d 08 09          	cmpl   $0x9,0x8(%ebp)
   350d8:	7f 1b                	jg     350f5 <partition+0x2b>
   350da:	8b 4d 08             	mov    0x8(%ebp),%ecx
   350dd:	ba 67 66 66 66       	mov    $0x66666667,%edx
   350e2:	89 c8                	mov    %ecx,%eax
   350e4:	f7 ea                	imul   %edx
   350e6:	d1 fa                	sar    %edx
   350e8:	89 c8                	mov    %ecx,%eax
   350ea:	c1 f8 1f             	sar    $0x1f,%eax
   350ed:	89 d1                	mov    %edx,%ecx
   350ef:	29 c1                	sub    %eax,%ecx
   350f1:	89 c8                	mov    %ecx,%eax
   350f3:	eb 14                	jmp    35109 <partition+0x3f>
   350f5:	8b 45 08             	mov    0x8(%ebp),%eax
   350f8:	83 e8 10             	sub    $0x10,%eax
   350fb:	89 c2                	mov    %eax,%edx
   350fd:	c1 fa 1f             	sar    $0x1f,%edx
   35100:	c1 ea 1a             	shr    $0x1a,%edx
   35103:	8d 04 02             	lea    (%edx,%eax,1),%eax
   35106:	c1 f8 06             	sar    $0x6,%eax
   35109:	89 45 d4             	mov    %eax,-0x2c(%ebp)
   3510c:	8b 45 d4             	mov    -0x2c(%ebp),%eax
   3510f:	69 c0 40 03 00 00    	imul   $0x340,%eax,%eax
   35115:	05 00 98 03 00       	add    $0x39800,%eax
   3511a:	89 45 d8             	mov    %eax,-0x28(%ebp)
   3511d:	83 7d 0c 00          	cmpl   $0x0,0xc(%ebp)
   35121:	0f 85 2c 01 00 00    	jne    35253 <partition+0x189>
   35127:	8d 85 d0 fb ff ff    	lea    -0x430(%ebp),%eax
   3512d:	89 44 24 08          	mov    %eax,0x8(%esp)
   35131:	8b 45 d4             	mov    -0x2c(%ebp),%eax
   35134:	89 44 24 04          	mov    %eax,0x4(%esp)
   35138:	8b 45 d4             	mov    -0x2c(%ebp),%eax
   3513b:	89 04 24             	mov    %eax,(%esp)
   3513e:	e8 41 02 00 00       	call   35384 <get_part_table>
   35143:	c7 45 dc 00 00 00 00 	movl   $0x0,-0x24(%ebp)
   3514a:	c7 45 d0 00 00 00 00 	movl   $0x0,-0x30(%ebp)
   35151:	e9 b7 00 00 00       	jmp    3520d <partition+0x143>
   35156:	8b 45 d0             	mov    -0x30(%ebp),%eax
   35159:	c1 e0 04             	shl    $0x4,%eax
   3515c:	8d 55 f8             	lea    -0x8(%ebp),%edx
   3515f:	8d 04 02             	lea    (%edx,%eax,1),%eax
   35162:	2d 28 04 00 00       	sub    $0x428,%eax
   35167:	0f b6 40 04          	movzbl 0x4(%eax),%eax
   3516b:	84 c0                	test   %al,%al
   3516d:	0f 84 95 00 00 00    	je     35208 <partition+0x13e>
   35173:	83 45 dc 01          	addl   $0x1,-0x24(%ebp)
   35177:	8b 45 d0             	mov    -0x30(%ebp),%eax
   3517a:	83 c0 01             	add    $0x1,%eax
   3517d:	89 45 e0             	mov    %eax,-0x20(%ebp)
   35180:	8b 55 e0             	mov    -0x20(%ebp),%edx
   35183:	8b 45 d0             	mov    -0x30(%ebp),%eax
   35186:	c1 e0 04             	shl    $0x4,%eax
   35189:	8d 4d f8             	lea    -0x8(%ebp),%ecx
   3518c:	8d 04 01             	lea    (%ecx,%eax,1),%eax
   3518f:	2d 20 04 00 00       	sub    $0x420,%eax
   35194:	8b 08                	mov    (%eax),%ecx
   35196:	8b 5d d8             	mov    -0x28(%ebp),%ebx
   35199:	89 d0                	mov    %edx,%eax
   3519b:	01 c0                	add    %eax,%eax
   3519d:	01 d0                	add    %edx,%eax
   3519f:	c1 e0 02             	shl    $0x2,%eax
   351a2:	8d 04 03             	lea    (%ebx,%eax,1),%eax
   351a5:	83 c0 04             	add    $0x4,%eax
   351a8:	89 08                	mov    %ecx,(%eax)
   351aa:	8b 55 e0             	mov    -0x20(%ebp),%edx
   351ad:	8b 45 d0             	mov    -0x30(%ebp),%eax
   351b0:	c1 e0 04             	shl    $0x4,%eax
   351b3:	8d 4d f8             	lea    -0x8(%ebp),%ecx
   351b6:	8d 04 01             	lea    (%ecx,%eax,1),%eax
   351b9:	2d 1c 04 00 00       	sub    $0x41c,%eax
   351be:	8b 08                	mov    (%eax),%ecx
   351c0:	8b 5d d8             	mov    -0x28(%ebp),%ebx
   351c3:	89 d0                	mov    %edx,%eax
   351c5:	01 c0                	add    %eax,%eax
   351c7:	01 d0                	add    %edx,%eax
   351c9:	c1 e0 02             	shl    $0x2,%eax
   351cc:	8d 04 03             	lea    (%ebx,%eax,1),%eax
   351cf:	83 c0 08             	add    $0x8,%eax
   351d2:	89 08                	mov    %ecx,(%eax)
   351d4:	8b 45 d0             	mov    -0x30(%ebp),%eax
   351d7:	c1 e0 04             	shl    $0x4,%eax
   351da:	8d 55 f8             	lea    -0x8(%ebp),%edx
   351dd:	8d 04 02             	lea    (%edx,%eax,1),%eax
   351e0:	2d 28 04 00 00       	sub    $0x428,%eax
   351e5:	0f b6 40 04          	movzbl 0x4(%eax),%eax
   351e9:	3c 05                	cmp    $0x5,%al
   351eb:	75 1c                	jne    35209 <partition+0x13f>
   351ed:	8b 45 e0             	mov    -0x20(%ebp),%eax
   351f0:	8b 55 08             	mov    0x8(%ebp),%edx
   351f3:	8d 04 02             	lea    (%edx,%eax,1),%eax
   351f6:	c7 44 24 04 01 00 00 	movl   $0x1,0x4(%esp)
   351fd:	00 
   351fe:	89 04 24             	mov    %eax,(%esp)
   35201:	e8 c4 fe ff ff       	call   350ca <partition>
   35206:	eb 01                	jmp    35209 <partition+0x13f>
   35208:	90                   	nop
   35209:	83 45 d0 01          	addl   $0x1,-0x30(%ebp)
   3520d:	83 7d d0 03          	cmpl   $0x3,-0x30(%ebp)
   35211:	0f 8e 3f ff ff ff    	jle    35156 <partition+0x8c>
   35217:	83 7d dc 00          	cmpl   $0x0,-0x24(%ebp)
   3521b:	0f 85 5a 01 00 00    	jne    3537b <partition+0x2b1>
   35221:	a1 40 79 06 00       	mov    0x67940,%eax
   35226:	89 44 24 10          	mov    %eax,0x10(%esp)
   3522a:	c7 44 24 0c 93 00 00 	movl   $0x93,0xc(%esp)
   35231:	00 
   35232:	c7 44 24 08 07 65 03 	movl   $0x36507,0x8(%esp)
   35239:	00 
   3523a:	c7 44 24 04 07 65 03 	movl   $0x36507,0x4(%esp)
   35241:	00 
   35242:	c7 04 24 29 65 03 00 	movl   $0x36529,(%esp)
   35249:	e8 19 fc ff ff       	call   34e67 <assertion_failure>
   3524e:	e9 28 01 00 00       	jmp    3537b <partition+0x2b1>
   35253:	83 7d 0c 01          	cmpl   $0x1,0xc(%ebp)
   35257:	0f 85 ee 00 00 00    	jne    3534b <partition+0x281>
   3525d:	8b 4d 08             	mov    0x8(%ebp),%ecx
   35260:	ba 67 66 66 66       	mov    $0x66666667,%edx
   35265:	89 c8                	mov    %ecx,%eax
   35267:	f7 ea                	imul   %edx
   35269:	d1 fa                	sar    %edx
   3526b:	89 c8                	mov    %ecx,%eax
   3526d:	c1 f8 1f             	sar    $0x1f,%eax
   35270:	29 c2                	sub    %eax,%edx
   35272:	89 d0                	mov    %edx,%eax
   35274:	c1 e0 02             	shl    $0x2,%eax
   35277:	01 d0                	add    %edx,%eax
   35279:	89 ca                	mov    %ecx,%edx
   3527b:	29 c2                	sub    %eax,%edx
   3527d:	89 d0                	mov    %edx,%eax
   3527f:	89 45 e4             	mov    %eax,-0x1c(%ebp)
   35282:	8b 55 e4             	mov    -0x1c(%ebp),%edx
   35285:	8b 4d d8             	mov    -0x28(%ebp),%ecx
   35288:	89 d0                	mov    %edx,%eax
   3528a:	01 c0                	add    %eax,%eax
   3528c:	01 d0                	add    %edx,%eax
   3528e:	c1 e0 02             	shl    $0x2,%eax
   35291:	8d 04 01             	lea    (%ecx,%eax,1),%eax
   35294:	83 c0 04             	add    $0x4,%eax
   35297:	8b 00                	mov    (%eax),%eax
   35299:	89 45 e8             	mov    %eax,-0x18(%ebp)
   3529c:	8b 45 e8             	mov    -0x18(%ebp),%eax
   3529f:	89 45 ec             	mov    %eax,-0x14(%ebp)
   352a2:	8b 45 e4             	mov    -0x1c(%ebp),%eax
   352a5:	83 e8 01             	sub    $0x1,%eax
   352a8:	c1 e0 04             	shl    $0x4,%eax
   352ab:	89 45 f0             	mov    %eax,-0x10(%ebp)
   352ae:	c7 45 d0 00 00 00 00 	movl   $0x0,-0x30(%ebp)
   352b5:	e9 85 00 00 00       	jmp    3533f <partition+0x275>
   352ba:	8b 45 d0             	mov    -0x30(%ebp),%eax
   352bd:	8b 55 f0             	mov    -0x10(%ebp),%edx
   352c0:	8d 04 02             	lea    (%edx,%eax,1),%eax
   352c3:	89 45 f4             	mov    %eax,-0xc(%ebp)
   352c6:	8d 85 d0 fb ff ff    	lea    -0x430(%ebp),%eax
   352cc:	89 44 24 08          	mov    %eax,0x8(%esp)
   352d0:	8b 45 ec             	mov    -0x14(%ebp),%eax
   352d3:	89 44 24 04          	mov    %eax,0x4(%esp)
   352d7:	8b 45 d4             	mov    -0x2c(%ebp),%eax
   352da:	89 04 24             	mov    %eax,(%esp)
   352dd:	e8 a2 00 00 00       	call   35384 <get_part_table>
   352e2:	8b 55 f4             	mov    -0xc(%ebp),%edx
   352e5:	8b 8d d8 fb ff ff    	mov    -0x428(%ebp),%ecx
   352eb:	8b 45 ec             	mov    -0x14(%ebp),%eax
   352ee:	01 c1                	add    %eax,%ecx
   352f0:	8b 5d d8             	mov    -0x28(%ebp),%ebx
   352f3:	89 d0                	mov    %edx,%eax
   352f5:	01 c0                	add    %eax,%eax
   352f7:	01 d0                	add    %edx,%eax
   352f9:	c1 e0 02             	shl    $0x2,%eax
   352fc:	8d 04 03             	lea    (%ebx,%eax,1),%eax
   352ff:	83 c0 40             	add    $0x40,%eax
   35302:	89 08                	mov    %ecx,(%eax)
   35304:	8b 55 f4             	mov    -0xc(%ebp),%edx
   35307:	8b 8d dc fb ff ff    	mov    -0x424(%ebp),%ecx
   3530d:	8b 5d d8             	mov    -0x28(%ebp),%ebx
   35310:	89 d0                	mov    %edx,%eax
   35312:	01 c0                	add    %eax,%eax
   35314:	01 d0                	add    %edx,%eax
   35316:	c1 e0 02             	shl    $0x2,%eax
   35319:	8d 04 03             	lea    (%ebx,%eax,1),%eax
   3531c:	83 c0 44             	add    $0x44,%eax
   3531f:	89 08                	mov    %ecx,(%eax)
   35321:	8b 95 e8 fb ff ff    	mov    -0x418(%ebp),%edx
   35327:	8b 45 e8             	mov    -0x18(%ebp),%eax
   3532a:	8d 04 02             	lea    (%edx,%eax,1),%eax
   3532d:	89 45 ec             	mov    %eax,-0x14(%ebp)
   35330:	0f b6 85 e4 fb ff ff 	movzbl -0x41c(%ebp),%eax
   35337:	84 c0                	test   %al,%al
   35339:	74 3f                	je     3537a <partition+0x2b0>
   3533b:	83 45 d0 01          	addl   $0x1,-0x30(%ebp)
   3533f:	83 7d d0 0f          	cmpl   $0xf,-0x30(%ebp)
   35343:	0f 8e 71 ff ff ff    	jle    352ba <partition+0x1f0>
   35349:	eb 30                	jmp    3537b <partition+0x2b1>
   3534b:	a1 40 79 06 00       	mov    0x67940,%eax
   35350:	89 44 24 10          	mov    %eax,0x10(%esp)
   35354:	c7 44 24 0c ac 00 00 	movl   $0xac,0xc(%esp)
   3535b:	00 
   3535c:	c7 44 24 08 07 65 03 	movl   $0x36507,0x8(%esp)
   35363:	00 
   35364:	c7 44 24 04 07 65 03 	movl   $0x36507,0x4(%esp)
   3536b:	00 
   3536c:	c7 04 24 3c 65 03 00 	movl   $0x3653c,(%esp)
   35373:	e8 ef fa ff ff       	call   34e67 <assertion_failure>
   35378:	eb 01                	jmp    3537b <partition+0x2b1>
   3537a:	90                   	nop
   3537b:	81 c4 54 04 00 00    	add    $0x454,%esp
   35381:	5b                   	pop    %ebx
   35382:	5d                   	pop    %ebp
   35383:	c3                   	ret    

00035384 <get_part_table>:
   35384:	55                   	push   %ebp
   35385:	89 e5                	mov    %esp,%ebp
   35387:	83 ec 28             	sub    $0x28,%esp
   3538a:	c6 45 f1 00          	movb   $0x0,-0xf(%ebp)
   3538e:	c6 45 f2 01          	movb   $0x1,-0xe(%ebp)
   35392:	8b 45 0c             	mov    0xc(%ebp),%eax
   35395:	88 45 f3             	mov    %al,-0xd(%ebp)
   35398:	8b 45 0c             	mov    0xc(%ebp),%eax
   3539b:	c1 f8 08             	sar    $0x8,%eax
   3539e:	88 45 f4             	mov    %al,-0xc(%ebp)
   353a1:	8b 45 0c             	mov    0xc(%ebp),%eax
   353a4:	c1 f8 10             	sar    $0x10,%eax
   353a7:	88 45 f5             	mov    %al,-0xb(%ebp)
   353aa:	8b 45 08             	mov    0x8(%ebp),%eax
   353ad:	c1 e0 04             	shl    $0x4,%eax
   353b0:	83 c8 40             	or     $0x40,%eax
   353b3:	8b 55 0c             	mov    0xc(%ebp),%edx
   353b6:	c1 fa 18             	sar    $0x18,%edx
   353b9:	83 e2 0f             	and    $0xf,%edx
   353bc:	09 d0                	or     %edx,%eax
   353be:	83 c8 a0             	or     $0xffffffa0,%eax
   353c1:	88 45 f6             	mov    %al,-0xa(%ebp)
   353c4:	c6 45 f7 20          	movb   $0x20,-0x9(%ebp)
   353c8:	8d 45 f1             	lea    -0xf(%ebp),%eax
   353cb:	89 04 24             	mov    %eax,(%esp)
   353ce:	e8 06 04 00 00       	call   357d9 <hd_cmd_out>
   353d3:	e8 fe 04 00 00       	call   358d6 <interrupt_wait>
   353d8:	c7 44 24 08 00 02 00 	movl   $0x200,0x8(%esp)
   353df:	00 
   353e0:	c7 44 24 04 60 9b 03 	movl   $0x39b60,0x4(%esp)
   353e7:	00 
   353e8:	c7 04 24 f0 01 00 00 	movl   $0x1f0,(%esp)
   353ef:	e8 0e b6 ff ff       	call   30a02 <port_read>
   353f4:	c7 44 24 08 40 00 00 	movl   $0x40,0x8(%esp)
   353fb:	00 
   353fc:	c7 44 24 04 1e 9d 03 	movl   $0x39d1e,0x4(%esp)
   35403:	00 
   35404:	8b 45 10             	mov    0x10(%ebp),%eax
   35407:	89 04 24             	mov    %eax,(%esp)
   3540a:	e8 21 b6 ff ff       	call   30a30 <memcpy>
   3540f:	c9                   	leave  
   35410:	c3                   	ret    

00035411 <print_hdinfo>:
   35411:	55                   	push   %ebp
   35412:	89 e5                	mov    %esp,%ebp
   35414:	57                   	push   %edi
   35415:	56                   	push   %esi
   35416:	53                   	push   %ebx
   35417:	83 ec 3c             	sub    $0x3c,%esp
   3541a:	c7 45 e4 00 00 00 00 	movl   $0x0,-0x1c(%ebp)
   35421:	e9 99 00 00 00       	jmp    354bf <print_hdinfo+0xae>
   35426:	8b 55 e4             	mov    -0x1c(%ebp),%edx
   35429:	8b 4d 08             	mov    0x8(%ebp),%ecx
   3542c:	89 d0                	mov    %edx,%eax
   3542e:	01 c0                	add    %eax,%eax
   35430:	01 d0                	add    %edx,%eax
   35432:	c1 e0 02             	shl    $0x2,%eax
   35435:	8d 04 01             	lea    (%ecx,%eax,1),%eax
   35438:	83 c0 08             	add    $0x8,%eax
   3543b:	8b 30                	mov    (%eax),%esi
   3543d:	8b 55 e4             	mov    -0x1c(%ebp),%edx
   35440:	8b 4d 08             	mov    0x8(%ebp),%ecx
   35443:	89 d0                	mov    %edx,%eax
   35445:	01 c0                	add    %eax,%eax
   35447:	01 d0                	add    %edx,%eax
   35449:	c1 e0 02             	shl    $0x2,%eax
   3544c:	8d 04 01             	lea    (%ecx,%eax,1),%eax
   3544f:	83 c0 08             	add    $0x8,%eax
   35452:	8b 18                	mov    (%eax),%ebx
   35454:	8b 55 e4             	mov    -0x1c(%ebp),%edx
   35457:	8b 4d 08             	mov    0x8(%ebp),%ecx
   3545a:	89 d0                	mov    %edx,%eax
   3545c:	01 c0                	add    %eax,%eax
   3545e:	01 d0                	add    %edx,%eax
   35460:	c1 e0 02             	shl    $0x2,%eax
   35463:	8d 04 01             	lea    (%ecx,%eax,1),%eax
   35466:	83 c0 04             	add    $0x4,%eax
   35469:	8b 08                	mov    (%eax),%ecx
   3546b:	8b 55 e4             	mov    -0x1c(%ebp),%edx
   3546e:	8b 7d 08             	mov    0x8(%ebp),%edi
   35471:	89 d0                	mov    %edx,%eax
   35473:	01 c0                	add    %eax,%eax
   35475:	01 d0                	add    %edx,%eax
   35477:	c1 e0 02             	shl    $0x2,%eax
   3547a:	8d 04 07             	lea    (%edi,%eax,1),%eax
   3547d:	83 c0 04             	add    $0x4,%eax
   35480:	8b 10                	mov    (%eax),%edx
   35482:	83 7d e4 00          	cmpl   $0x0,-0x1c(%ebp)
   35486:	75 07                	jne    3548f <print_hdinfo+0x7e>
   35488:	b8 3e 65 03 00       	mov    $0x3653e,%eax
   3548d:	eb 05                	jmp    35494 <print_hdinfo+0x83>
   3548f:	b8 40 65 03 00       	mov    $0x36540,%eax
   35494:	89 74 24 18          	mov    %esi,0x18(%esp)
   35498:	89 5c 24 14          	mov    %ebx,0x14(%esp)
   3549c:	89 4c 24 10          	mov    %ecx,0x10(%esp)
   354a0:	89 54 24 0c          	mov    %edx,0xc(%esp)
   354a4:	8b 55 e4             	mov    -0x1c(%ebp),%edx
   354a7:	89 54 24 08          	mov    %edx,0x8(%esp)
   354ab:	89 44 24 04          	mov    %eax,0x4(%esp)
   354af:	c7 04 24 48 65 03 00 	movl   $0x36548,(%esp)
   354b6:	e8 d9 f4 ff ff       	call   34994 <printf>
   354bb:	83 45 e4 01          	addl   $0x1,-0x1c(%ebp)
   354bf:	83 7d e4 04          	cmpl   $0x4,-0x1c(%ebp)
   354c3:	0f 8e 5d ff ff ff    	jle    35426 <print_hdinfo+0x15>
   354c9:	c7 45 e4 00 00 00 00 	movl   $0x0,-0x1c(%ebp)
   354d0:	e9 a5 00 00 00       	jmp    3557a <print_hdinfo+0x169>
   354d5:	8b 55 e4             	mov    -0x1c(%ebp),%edx
   354d8:	8b 4d 08             	mov    0x8(%ebp),%ecx
   354db:	89 d0                	mov    %edx,%eax
   354dd:	01 c0                	add    %eax,%eax
   354df:	01 d0                	add    %edx,%eax
   354e1:	c1 e0 02             	shl    $0x2,%eax
   354e4:	8d 04 01             	lea    (%ecx,%eax,1),%eax
   354e7:	83 c0 44             	add    $0x44,%eax
   354ea:	8b 00                	mov    (%eax),%eax
   354ec:	85 c0                	test   %eax,%eax
   354ee:	0f 84 81 00 00 00    	je     35575 <print_hdinfo+0x164>
   354f4:	8b 55 e4             	mov    -0x1c(%ebp),%edx
   354f7:	8b 4d 08             	mov    0x8(%ebp),%ecx
   354fa:	89 d0                	mov    %edx,%eax
   354fc:	01 c0                	add    %eax,%eax
   354fe:	01 d0                	add    %edx,%eax
   35500:	c1 e0 02             	shl    $0x2,%eax
   35503:	8d 04 01             	lea    (%ecx,%eax,1),%eax
   35506:	83 c0 44             	add    $0x44,%eax
   35509:	8b 30                	mov    (%eax),%esi
   3550b:	8b 55 e4             	mov    -0x1c(%ebp),%edx
   3550e:	8b 4d 08             	mov    0x8(%ebp),%ecx
   35511:	89 d0                	mov    %edx,%eax
   35513:	01 c0                	add    %eax,%eax
   35515:	01 d0                	add    %edx,%eax
   35517:	c1 e0 02             	shl    $0x2,%eax
   3551a:	8d 04 01             	lea    (%ecx,%eax,1),%eax
   3551d:	83 c0 44             	add    $0x44,%eax
   35520:	8b 18                	mov    (%eax),%ebx
   35522:	8b 55 e4             	mov    -0x1c(%ebp),%edx
   35525:	8b 4d 08             	mov    0x8(%ebp),%ecx
   35528:	89 d0                	mov    %edx,%eax
   3552a:	01 c0                	add    %eax,%eax
   3552c:	01 d0                	add    %edx,%eax
   3552e:	c1 e0 02             	shl    $0x2,%eax
   35531:	8d 04 01             	lea    (%ecx,%eax,1),%eax
   35534:	83 c0 40             	add    $0x40,%eax
   35537:	8b 08                	mov    (%eax),%ecx
   35539:	8b 55 e4             	mov    -0x1c(%ebp),%edx
   3553c:	8b 7d 08             	mov    0x8(%ebp),%edi
   3553f:	89 d0                	mov    %edx,%eax
   35541:	01 c0                	add    %eax,%eax
   35543:	01 d0                	add    %edx,%eax
   35545:	c1 e0 02             	shl    $0x2,%eax
   35548:	8d 04 07             	lea    (%edi,%eax,1),%eax
   3554b:	83 c0 40             	add    $0x40,%eax
   3554e:	8b 00                	mov    (%eax),%eax
   35550:	89 74 24 14          	mov    %esi,0x14(%esp)
   35554:	89 5c 24 10          	mov    %ebx,0x10(%esp)
   35558:	89 4c 24 0c          	mov    %ecx,0xc(%esp)
   3555c:	89 44 24 08          	mov    %eax,0x8(%esp)
   35560:	8b 45 e4             	mov    -0x1c(%ebp),%eax
   35563:	89 44 24 04          	mov    %eax,0x4(%esp)
   35567:	c7 04 24 80 65 03 00 	movl   $0x36580,(%esp)
   3556e:	e8 21 f4 ff ff       	call   34994 <printf>
   35573:	eb 01                	jmp    35576 <print_hdinfo+0x165>
   35575:	90                   	nop
   35576:	83 45 e4 01          	addl   $0x1,-0x1c(%ebp)
   3557a:	83 7d e4 3f          	cmpl   $0x3f,-0x1c(%ebp)
   3557e:	0f 8e 51 ff ff ff    	jle    354d5 <print_hdinfo+0xc4>
   35584:	83 c4 3c             	add    $0x3c,%esp
   35587:	5b                   	pop    %ebx
   35588:	5e                   	pop    %esi
   35589:	5f                   	pop    %edi
   3558a:	5d                   	pop    %ebp
   3558b:	c3                   	ret    

0003558c <hd_identify>:
   3558c:	55                   	push   %ebp
   3558d:	89 e5                	mov    %esp,%ebp
   3558f:	83 ec 28             	sub    $0x28,%esp
   35592:	8b 45 08             	mov    0x8(%ebp),%eax
   35595:	c1 e0 04             	shl    $0x4,%eax
   35598:	83 c8 a0             	or     $0xffffffa0,%eax
   3559b:	88 45 f6             	mov    %al,-0xa(%ebp)
   3559e:	c6 45 f7 ec          	movb   $0xec,-0x9(%ebp)
   355a2:	8d 45 f1             	lea    -0xf(%ebp),%eax
   355a5:	89 04 24             	mov    %eax,(%esp)
   355a8:	e8 2c 02 00 00       	call   357d9 <hd_cmd_out>
   355ad:	e8 24 03 00 00       	call   358d6 <interrupt_wait>
   355b2:	c7 44 24 08 00 02 00 	movl   $0x200,0x8(%esp)
   355b9:	00 
   355ba:	c7 44 24 04 60 9b 03 	movl   $0x39b60,0x4(%esp)
   355c1:	00 
   355c2:	c7 04 24 f0 01 00 00 	movl   $0x1f0,(%esp)
   355c9:	e8 34 b4 ff ff       	call   30a02 <port_read>
   355ce:	b8 60 9b 03 00       	mov    $0x39b60,%eax
   355d3:	89 04 24             	mov    %eax,(%esp)
   355d6:	e8 02 00 00 00       	call   355dd <print_identify_info>
   355db:	c9                   	leave  
   355dc:	c3                   	ret    

000355dd <print_identify_info>:
   355dd:	55                   	push   %ebp
   355de:	89 e5                	mov    %esp,%ebp
   355e0:	81 ec 98 00 00 00    	sub    $0x98,%esp
   355e6:	c7 85 7c ff ff ff 0a 	movl   $0xa,-0x84(%ebp)
   355ed:	00 00 00 
   355f0:	c7 45 80 14 00 00 00 	movl   $0x14,-0x80(%ebp)
   355f7:	c7 45 84 b7 65 03 00 	movl   $0x365b7,-0x7c(%ebp)
   355fe:	c7 45 88 17 00 00 00 	movl   $0x17,-0x78(%ebp)
   35605:	c7 45 8c 08 00 00 00 	movl   $0x8,-0x74(%ebp)
   3560c:	c7 45 90 bd 65 03 00 	movl   $0x365bd,-0x70(%ebp)
   35613:	c7 45 94 1b 00 00 00 	movl   $0x1b,-0x6c(%ebp)
   3561a:	c7 45 98 28 00 00 00 	movl   $0x28,-0x68(%ebp)
   35621:	c7 45 9c ce 65 03 00 	movl   $0x365ce,-0x64(%ebp)
   35628:	c7 45 e4 00 00 00 00 	movl   $0x0,-0x1c(%ebp)
   3562f:	e9 bb 00 00 00       	jmp    356ef <print_identify_info+0x112>
   35634:	8b 4d 08             	mov    0x8(%ebp),%ecx
   35637:	8b 55 e4             	mov    -0x1c(%ebp),%edx
   3563a:	89 d0                	mov    %edx,%eax
   3563c:	01 c0                	add    %eax,%eax
   3563e:	01 d0                	add    %edx,%eax
   35640:	c1 e0 02             	shl    $0x2,%eax
   35643:	8d 55 f8             	lea    -0x8(%ebp),%edx
   35646:	8d 04 02             	lea    (%edx,%eax,1),%eax
   35649:	83 e8 7c             	sub    $0x7c,%eax
   3564c:	8b 00                	mov    (%eax),%eax
   3564e:	01 c0                	add    %eax,%eax
   35650:	8d 04 01             	lea    (%ecx,%eax,1),%eax
   35653:	89 45 f4             	mov    %eax,-0xc(%ebp)
   35656:	c7 45 e0 00 00 00 00 	movl   $0x0,-0x20(%ebp)
   3565d:	eb 2e                	jmp    3568d <print_identify_info+0xb0>
   3565f:	8b 45 e0             	mov    -0x20(%ebp),%eax
   35662:	01 c0                	add    %eax,%eax
   35664:	8d 50 01             	lea    0x1(%eax),%edx
   35667:	8b 45 f4             	mov    -0xc(%ebp),%eax
   3566a:	0f b6 00             	movzbl (%eax),%eax
   3566d:	88 44 15 a0          	mov    %al,-0x60(%ebp,%edx,1)
   35671:	83 45 f4 01          	addl   $0x1,-0xc(%ebp)
   35675:	8b 45 e0             	mov    -0x20(%ebp),%eax
   35678:	8d 14 00             	lea    (%eax,%eax,1),%edx
   3567b:	8b 45 f4             	mov    -0xc(%ebp),%eax
   3567e:	0f b6 00             	movzbl (%eax),%eax
   35681:	88 44 15 a0          	mov    %al,-0x60(%ebp,%edx,1)
   35685:	83 45 f4 01          	addl   $0x1,-0xc(%ebp)
   35689:	83 45 e0 01          	addl   $0x1,-0x20(%ebp)
   3568d:	8b 55 e4             	mov    -0x1c(%ebp),%edx
   35690:	89 d0                	mov    %edx,%eax
   35692:	01 c0                	add    %eax,%eax
   35694:	01 d0                	add    %edx,%eax
   35696:	c1 e0 02             	shl    $0x2,%eax
   35699:	8d 55 f8             	lea    -0x8(%ebp),%edx
   3569c:	8d 04 02             	lea    (%edx,%eax,1),%eax
   3569f:	83 e8 78             	sub    $0x78,%eax
   356a2:	8b 00                	mov    (%eax),%eax
   356a4:	89 c2                	mov    %eax,%edx
   356a6:	c1 ea 1f             	shr    $0x1f,%edx
   356a9:	8d 04 02             	lea    (%edx,%eax,1),%eax
   356ac:	d1 f8                	sar    %eax
   356ae:	3b 45 e0             	cmp    -0x20(%ebp),%eax
   356b1:	7f ac                	jg     3565f <print_identify_info+0x82>
   356b3:	8b 45 e0             	mov    -0x20(%ebp),%eax
   356b6:	01 c0                	add    %eax,%eax
   356b8:	c6 44 05 a0 00       	movb   $0x0,-0x60(%ebp,%eax,1)
   356bd:	8b 55 e4             	mov    -0x1c(%ebp),%edx
   356c0:	89 d0                	mov    %edx,%eax
   356c2:	01 c0                	add    %eax,%eax
   356c4:	01 d0                	add    %edx,%eax
   356c6:	c1 e0 02             	shl    $0x2,%eax
   356c9:	8d 55 f8             	lea    -0x8(%ebp),%edx
   356cc:	8d 04 02             	lea    (%edx,%eax,1),%eax
   356cf:	83 e8 74             	sub    $0x74,%eax
   356d2:	8b 00                	mov    (%eax),%eax
   356d4:	8d 55 a0             	lea    -0x60(%ebp),%edx
   356d7:	89 54 24 08          	mov    %edx,0x8(%esp)
   356db:	89 44 24 04          	mov    %eax,0x4(%esp)
   356df:	c7 04 24 d7 65 03 00 	movl   $0x365d7,(%esp)
   356e6:	e8 a9 f2 ff ff       	call   34994 <printf>
   356eb:	83 45 e4 01          	addl   $0x1,-0x1c(%ebp)
   356ef:	8b 45 e4             	mov    -0x1c(%ebp),%eax
   356f2:	83 f8 02             	cmp    $0x2,%eax
   356f5:	0f 86 39 ff ff ff    	jbe    35634 <print_identify_info+0x57>
   356fb:	8b 45 08             	mov    0x8(%ebp),%eax
   356fe:	83 c0 62             	add    $0x62,%eax
   35701:	0f b7 00             	movzwl (%eax),%eax
   35704:	0f b7 c0             	movzwl %ax,%eax
   35707:	89 45 e8             	mov    %eax,-0x18(%ebp)
   3570a:	8b 45 e8             	mov    -0x18(%ebp),%eax
   3570d:	25 00 02 00 00       	and    $0x200,%eax
   35712:	85 c0                	test   %eax,%eax
   35714:	74 07                	je     3571d <print_identify_info+0x140>
   35716:	b8 df 65 03 00       	mov    $0x365df,%eax
   3571b:	eb 05                	jmp    35722 <print_identify_info+0x145>
   3571d:	b8 e3 65 03 00       	mov    $0x365e3,%eax
   35722:	89 44 24 04          	mov    %eax,0x4(%esp)
   35726:	c7 04 24 e6 65 03 00 	movl   $0x365e6,(%esp)
   3572d:	e8 62 f2 ff ff       	call   34994 <printf>
   35732:	8b 45 e8             	mov    -0x18(%ebp),%eax
   35735:	25 00 01 00 00       	and    $0x100,%eax
   3573a:	85 c0                	test   %eax,%eax
   3573c:	74 07                	je     35745 <print_identify_info+0x168>
   3573e:	b8 df 65 03 00       	mov    $0x365df,%eax
   35743:	eb 05                	jmp    3574a <print_identify_info+0x16d>
   35745:	b8 e3 65 03 00       	mov    $0x365e3,%eax
   3574a:	89 44 24 04          	mov    %eax,0x4(%esp)
   3574e:	c7 04 24 f9 65 03 00 	movl   $0x365f9,(%esp)
   35755:	e8 3a f2 ff ff       	call   34994 <printf>
   3575a:	8b 45 08             	mov    0x8(%ebp),%eax
   3575d:	05 a6 00 00 00       	add    $0xa6,%eax
   35762:	0f b7 00             	movzwl (%eax),%eax
   35765:	0f b7 c0             	movzwl %ax,%eax
   35768:	89 45 ec             	mov    %eax,-0x14(%ebp)
   3576b:	8b 45 ec             	mov    -0x14(%ebp),%eax
   3576e:	25 00 04 00 00       	and    $0x400,%eax
   35773:	85 c0                	test   %eax,%eax
   35775:	74 07                	je     3577e <print_identify_info+0x1a1>
   35777:	b8 df 65 03 00       	mov    $0x365df,%eax
   3577c:	eb 05                	jmp    35783 <print_identify_info+0x1a6>
   3577e:	b8 e3 65 03 00       	mov    $0x365e3,%eax
   35783:	89 44 24 04          	mov    %eax,0x4(%esp)
   35787:	c7 04 24 0c 66 03 00 	movl   $0x3660c,(%esp)
   3578e:	e8 01 f2 ff ff       	call   34994 <printf>
   35793:	8b 45 08             	mov    0x8(%ebp),%eax
   35796:	83 c0 7a             	add    $0x7a,%eax
   35799:	0f b7 00             	movzwl (%eax),%eax
   3579c:	0f b7 c0             	movzwl %ax,%eax
   3579f:	89 c2                	mov    %eax,%edx
   357a1:	c1 e2 10             	shl    $0x10,%edx
   357a4:	8b 45 08             	mov    0x8(%ebp),%eax
   357a7:	83 c0 78             	add    $0x78,%eax
   357aa:	0f b7 00             	movzwl (%eax),%eax
   357ad:	0f b7 c0             	movzwl %ax,%eax
   357b0:	8d 04 02             	lea    (%edx,%eax,1),%eax
   357b3:	89 45 f0             	mov    %eax,-0x10(%ebp)
   357b6:	8b 45 f0             	mov    -0x10(%ebp),%eax
   357b9:	89 c2                	mov    %eax,%edx
   357bb:	c1 fa 1f             	sar    $0x1f,%edx
   357be:	c1 ea 15             	shr    $0x15,%edx
   357c1:	8d 04 02             	lea    (%edx,%eax,1),%eax
   357c4:	c1 f8 0b             	sar    $0xb,%eax
   357c7:	89 44 24 04          	mov    %eax,0x4(%esp)
   357cb:	c7 04 24 21 66 03 00 	movl   $0x36621,(%esp)
   357d2:	e8 bd f1 ff ff       	call   34994 <printf>
   357d7:	c9                   	leave  
   357d8:	c3                   	ret    

000357d9 <hd_cmd_out>:
   357d9:	55                   	push   %ebp
   357da:	89 e5                	mov    %esp,%ebp
   357dc:	83 ec 18             	sub    $0x18,%esp
   357df:	c7 44 24 08 10 27 00 	movl   $0x2710,0x8(%esp)
   357e6:	00 
   357e7:	c7 44 24 04 00 00 00 	movl   $0x0,0x4(%esp)
   357ee:	00 
   357ef:	c7 04 24 80 00 00 00 	movl   $0x80,(%esp)
   357f6:	e8 fe 00 00 00       	call   358f9 <waitfor>
   357fb:	85 c0                	test   %eax,%eax
   357fd:	75 0c                	jne    3580b <hd_cmd_out+0x32>
   357ff:	c7 04 24 30 66 03 00 	movl   $0x36630,(%esp)
   35806:	e8 7d c8 ff ff       	call   32088 <panic>
   3580b:	c7 44 24 04 00 00 00 	movl   $0x0,0x4(%esp)
   35812:	00 
   35813:	c7 04 24 f6 03 00 00 	movl   $0x3f6,(%esp)
   3581a:	e8 75 b1 ff ff       	call   30994 <out_byte>
   3581f:	8b 45 08             	mov    0x8(%ebp),%eax
   35822:	0f b6 00             	movzbl (%eax),%eax
   35825:	0f b6 c0             	movzbl %al,%eax
   35828:	89 44 24 04          	mov    %eax,0x4(%esp)
   3582c:	c7 04 24 f1 01 00 00 	movl   $0x1f1,(%esp)
   35833:	e8 5c b1 ff ff       	call   30994 <out_byte>
   35838:	8b 45 08             	mov    0x8(%ebp),%eax
   3583b:	0f b6 40 01          	movzbl 0x1(%eax),%eax
   3583f:	0f b6 c0             	movzbl %al,%eax
   35842:	89 44 24 04          	mov    %eax,0x4(%esp)
   35846:	c7 04 24 f2 01 00 00 	movl   $0x1f2,(%esp)
   3584d:	e8 42 b1 ff ff       	call   30994 <out_byte>
   35852:	8b 45 08             	mov    0x8(%ebp),%eax
   35855:	0f b6 40 02          	movzbl 0x2(%eax),%eax
   35859:	0f b6 c0             	movzbl %al,%eax
   3585c:	89 44 24 04          	mov    %eax,0x4(%esp)
   35860:	c7 04 24 f3 01 00 00 	movl   $0x1f3,(%esp)
   35867:	e8 28 b1 ff ff       	call   30994 <out_byte>
   3586c:	8b 45 08             	mov    0x8(%ebp),%eax
   3586f:	0f b6 40 03          	movzbl 0x3(%eax),%eax
   35873:	0f b6 c0             	movzbl %al,%eax
   35876:	89 44 24 04          	mov    %eax,0x4(%esp)
   3587a:	c7 04 24 f4 01 00 00 	movl   $0x1f4,(%esp)
   35881:	e8 0e b1 ff ff       	call   30994 <out_byte>
   35886:	8b 45 08             	mov    0x8(%ebp),%eax
   35889:	0f b6 40 04          	movzbl 0x4(%eax),%eax
   3588d:	0f b6 c0             	movzbl %al,%eax
   35890:	89 44 24 04          	mov    %eax,0x4(%esp)
   35894:	c7 04 24 f5 01 00 00 	movl   $0x1f5,(%esp)
   3589b:	e8 f4 b0 ff ff       	call   30994 <out_byte>
   358a0:	8b 45 08             	mov    0x8(%ebp),%eax
   358a3:	0f b6 40 05          	movzbl 0x5(%eax),%eax
   358a7:	0f b6 c0             	movzbl %al,%eax
   358aa:	89 44 24 04          	mov    %eax,0x4(%esp)
   358ae:	c7 04 24 f6 01 00 00 	movl   $0x1f6,(%esp)
   358b5:	e8 da b0 ff ff       	call   30994 <out_byte>
   358ba:	8b 45 08             	mov    0x8(%ebp),%eax
   358bd:	0f b6 40 06          	movzbl 0x6(%eax),%eax
   358c1:	0f b6 c0             	movzbl %al,%eax
   358c4:	89 44 24 04          	mov    %eax,0x4(%esp)
   358c8:	c7 04 24 f7 01 00 00 	movl   $0x1f7,(%esp)
   358cf:	e8 c0 b0 ff ff       	call   30994 <out_byte>
   358d4:	c9                   	leave  
   358d5:	c3                   	ret    

000358d6 <interrupt_wait>:
   358d6:	55                   	push   %ebp
   358d7:	89 e5                	mov    %esp,%ebp
   358d9:	83 ec 48             	sub    $0x48,%esp
   358dc:	8d 45 c8             	lea    -0x38(%ebp),%eax
   358df:	89 44 24 08          	mov    %eax,0x8(%esp)
   358e3:	c7 44 24 04 f6 ff ff 	movl   $0xfffffff6,0x4(%esp)
   358ea:	ff 
   358eb:	c7 04 24 02 00 00 00 	movl   $0x2,(%esp)
   358f2:	e8 a4 cd ff ff       	call   3269b <send_recv>
   358f7:	c9                   	leave  
   358f8:	c3                   	ret    

000358f9 <waitfor>:
   358f9:	55                   	push   %ebp
   358fa:	89 e5                	mov    %esp,%ebp
   358fc:	83 ec 28             	sub    $0x28,%esp
   358ff:	e8 cf c6 ff ff       	call   31fd3 <get_ticks>
   35904:	89 45 f4             	mov    %eax,-0xc(%ebp)
   35907:	eb 1e                	jmp    35927 <waitfor+0x2e>
   35909:	c7 04 24 f7 01 00 00 	movl   $0x1f7,(%esp)
   35910:	e8 8b b0 ff ff       	call   309a0 <in_byte>
   35915:	0f b6 c0             	movzbl %al,%eax
   35918:	23 45 08             	and    0x8(%ebp),%eax
   3591b:	3b 45 0c             	cmp    0xc(%ebp),%eax
   3591e:	75 07                	jne    35927 <waitfor+0x2e>
   35920:	b8 01 00 00 00       	mov    $0x1,%eax
   35925:	eb 2f                	jmp    35956 <waitfor+0x5d>
   35927:	e8 a7 c6 ff ff       	call   31fd3 <get_ticks>
   3592c:	2b 45 f4             	sub    -0xc(%ebp),%eax
   3592f:	69 c8 e8 03 00 00    	imul   $0x3e8,%eax,%ecx
   35935:	ba 1f 85 eb 51       	mov    $0x51eb851f,%edx
   3593a:	89 c8                	mov    %ecx,%eax
   3593c:	f7 ea                	imul   %edx
   3593e:	c1 fa 05             	sar    $0x5,%edx
   35941:	89 c8                	mov    %ecx,%eax
   35943:	c1 f8 1f             	sar    $0x1f,%eax
   35946:	89 d1                	mov    %edx,%ecx
   35948:	29 c1                	sub    %eax,%ecx
   3594a:	89 c8                	mov    %ecx,%eax
   3594c:	3b 45 10             	cmp    0x10(%ebp),%eax
   3594f:	7c b8                	jl     35909 <waitfor+0x10>
   35951:	b8 00 00 00 00       	mov    $0x0,%eax
   35956:	c9                   	leave  
   35957:	c3                   	ret    

00035958 <hd_handler>:
   35958:	55                   	push   %ebp
   35959:	89 e5                	mov    %esp,%ebp
   3595b:	83 ec 18             	sub    $0x18,%esp
   3595e:	c7 04 24 f7 01 00 00 	movl   $0x1f7,(%esp)
   35965:	e8 36 b0 ff ff       	call   309a0 <in_byte>
   3596a:	a2 40 9b 03 00       	mov    %al,0x39b40
   3596f:	c7 44 24 04 04 00 00 	movl   $0x4,0x4(%esp)
   35976:	00 
   35977:	c7 04 24 f6 ff ff ff 	movl   $0xfffffff6,(%esp)
   3597e:	e8 54 e5 ff ff       	call   33ed7 <lock_notify>
   35983:	c9                   	leave  
   35984:	c3                   	ret    
   35985:	90                   	nop
   35986:	90                   	nop
   35987:	90                   	nop

00035988 <task_fs>:
   35988:	55                   	push   %ebp
   35989:	89 e5                	mov    %esp,%ebp
   3598b:	83 ec 48             	sub    $0x48,%esp
   3598e:	8d 45 c8             	lea    -0x38(%ebp),%eax
   35991:	89 44 24 08          	mov    %eax,0x8(%esp)
   35995:	c7 44 24 04 f6 ff ff 	movl   $0xfffffff6,0x4(%esp)
   3599c:	ff 
   3599d:	c7 04 24 02 00 00 00 	movl   $0x2,(%esp)
   359a4:	e8 f2 cc ff ff       	call   3269b <send_recv>
   359a9:	c7 45 cc e9 03 00 00 	movl   $0x3e9,-0x34(%ebp)
   359b0:	c7 45 dc 20 00 00 00 	movl   $0x20,-0x24(%ebp)
   359b7:	8d 45 c8             	lea    -0x38(%ebp),%eax
   359ba:	89 44 24 08          	mov    %eax,0x8(%esp)
   359be:	c7 44 24 04 04 00 00 	movl   $0x4,0x4(%esp)
   359c5:	00 
   359c6:	c7 04 24 03 00 00 00 	movl   $0x3,(%esp)
   359cd:	e8 c9 cc ff ff       	call   3269b <send_recv>
   359d2:	eb ba                	jmp    3598e <task_fs+0x6>

Disassembly of section .rodata:

000359e0 <C.3.1262-0x2a0>:
   359e0:	0a 0a                	or     (%edx),%cl
   359e2:	0a 0a                	or     (%edx),%cl
   359e4:	0a 0a                	or     (%edx),%cl
   359e6:	0a 0a                	or     (%edx),%cl
   359e8:	0a 0a                	or     (%edx),%cl
   359ea:	0a 0a                	or     (%edx),%cl
   359ec:	0a 0a                	or     (%edx),%cl
   359ee:	0a 2d 2d 2d 2d 2d    	or     0x2d2d2d2d,%ch
   359f4:	22 63 73             	and    0x73(%ebx),%ah
   359f7:	74 61                	je     35a5a <task_fs+0xd2>
   359f9:	72 74                	jb     35a6f <task_fs+0xe7>
   359fb:	22 20                	and    (%eax),%ah
   359fd:	62 65 67             	bound  %esp,0x67(%ebp)
   35a00:	69 6e 73 2d 2d 2d 2d 	imul   $0x2d2d2d2d,0x73(%esi),%ebp
   35a07:	2d 0a 00 2d 2d       	sub    $0x2d2d000a,%eax
   35a0c:	2d 2d 2d 22 63       	sub    $0x63222d2d,%eax
   35a11:	73 74                	jae    35a87 <task_fs+0xff>
   35a13:	61                   	popa   
   35a14:	72 74                	jb     35a8a <task_fs+0x102>
   35a16:	22 20                	and    (%eax),%ah
   35a18:	65 6e                	outsb  %gs:(%esi),(%dx)
   35a1a:	64                   	fs
   35a1b:	73 2d                	jae    35a4a <task_fs+0xc2>
   35a1d:	2d 2d 2d 2d 0a       	sub    $0xa2d2d2d,%eax
   35a22:	00 20                	add    %ah,(%eax)
   35a24:	49                   	dec    %ecx
   35a25:	4e                   	dec    %esi
   35a26:	54                   	push   %esp
   35a27:	45                   	inc    %ebp
   35a28:	52                   	push   %edx
   35a29:	52                   	push   %edx
   35a2a:	55                   	push   %ebp
   35a2b:	50                   	push   %eax
   35a2c:	54                   	push   %esp
   35a2d:	20 4e 55             	and    %cl,0x55(%esi)
   35a30:	4d                   	dec    %ebp
   35a31:	20 3a                	and    %bh,(%edx)
   35a33:	20 00                	and    %al,(%eax)
   35a35:	0a 00                	or     (%eax),%al
	...
   35a3f:	00 20                	add    %ah,(%eax)
   35a41:	00 45 78             	add    %al,0x78(%ebp)
   35a44:	63 65 70             	arpl   %sp,0x70(%ebp)
   35a47:	74 69                	je     35ab2 <task_fs+0x12a>
   35a49:	6f                   	outsl  %ds:(%esi),(%dx)
   35a4a:	6e                   	outsb  %ds:(%esi),(%dx)
   35a4b:	21 20                	and    %esp,(%eax)
   35a4d:	2d 2d 3e 20 00       	sub    $0x203e2d,%eax
   35a52:	0a 0a                	or     (%edx),%cl
   35a54:	00 45 46             	add    %al,0x46(%ebp)
   35a57:	4c                   	dec    %esp
   35a58:	41                   	inc    %ecx
   35a59:	47                   	inc    %edi
   35a5a:	53                   	push   %ebx
   35a5b:	3a 00                	cmp    (%eax),%al
   35a5d:	43                   	inc    %ebx
   35a5e:	53                   	push   %ebx
   35a5f:	3a 00                	cmp    (%eax),%al
   35a61:	45                   	inc    %ebp
   35a62:	49                   	dec    %ecx
   35a63:	50                   	push   %eax
   35a64:	3a 00                	cmp    (%eax),%al
   35a66:	45                   	inc    %ebp
   35a67:	72 72                	jb     35adb <task_fs+0x153>
   35a69:	6f                   	outsl  %ds:(%esi),(%dx)
   35a6a:	72 20                	jb     35a8c <task_fs+0x104>
   35a6c:	63 6f 64             	arpl   %bp,0x64(%edi)
   35a6f:	65 3a 00             	cmp    %gs:(%eax),%al
   35a72:	23 44 45 20          	and    0x20(%ebp,%eax,2),%eax
   35a76:	44                   	inc    %esp
   35a77:	69 76 69 64 65 20 45 	imul   $0x45206564,0x69(%esi),%esi
   35a7e:	72 72                	jb     35af2 <task_fs+0x16a>
   35a80:	6f                   	outsl  %ds:(%esi),(%dx)
   35a81:	72 00                	jb     35a83 <task_fs+0xfb>
   35a83:	23 44 42 20          	and    0x20(%edx,%eax,2),%eax
   35a87:	52                   	push   %edx
   35a88:	45                   	inc    %ebp
   35a89:	53                   	push   %ebx
   35a8a:	45                   	inc    %ebp
   35a8b:	52                   	push   %edx
   35a8c:	56                   	push   %esi
   35a8d:	45                   	inc    %ebp
   35a8e:	44                   	inc    %esp
   35a8f:	00 2d 2d 20 20 4e    	add    %ch,0x4e20202d
   35a95:	4d                   	dec    %ebp
   35a96:	49                   	dec    %ecx
   35a97:	20 49 6e             	and    %cl,0x6e(%ecx)
   35a9a:	74 65                	je     35b01 <task_fs+0x179>
   35a9c:	72 72                	jb     35b10 <task_fs+0x188>
   35a9e:	75 70                	jne    35b10 <task_fs+0x188>
   35aa0:	74 00                	je     35aa2 <task_fs+0x11a>
   35aa2:	23 42 50             	and    0x50(%edx),%eax
   35aa5:	20 42 72             	and    %al,0x72(%edx)
   35aa8:	65                   	gs
   35aa9:	61                   	popa   
   35aaa:	6b 70 6f 69          	imul   $0x69,0x6f(%eax),%esi
   35aae:	6e                   	outsb  %ds:(%esi),(%dx)
   35aaf:	74 00                	je     35ab1 <task_fs+0x129>
   35ab1:	23 4f 46             	and    0x46(%edi),%ecx
   35ab4:	20 4f 76             	and    %cl,0x76(%edi)
   35ab7:	65                   	gs
   35ab8:	72 66                	jb     35b20 <task_fs+0x198>
   35aba:	6c                   	insb   (%dx),%es:(%edi)
   35abb:	6f                   	outsl  %ds:(%esi),(%dx)
   35abc:	77 00                	ja     35abe <task_fs+0x136>
   35abe:	23 42 52             	and    0x52(%edx),%eax
   35ac1:	20 42 4f             	and    %al,0x4f(%edx)
   35ac4:	55                   	push   %ebp
   35ac5:	4e                   	dec    %esi
   35ac6:	44                   	inc    %esp
   35ac7:	20 52 61             	and    %dl,0x61(%edx)
   35aca:	6e                   	outsb  %ds:(%esi),(%dx)
   35acb:	67 65 20 45 78       	addr16 and %al,%gs:0x78(%di)
   35ad0:	63 65 65             	arpl   %sp,0x65(%ebp)
   35ad3:	64 65 64 00 00       	add    %al,%fs:%gs:(%eax)
   35ad8:	23 55 44             	and    0x44(%ebp),%edx
   35adb:	20 49 6e             	and    %cl,0x6e(%ecx)
   35ade:	76 61                	jbe    35b41 <task_fs+0x1b9>
   35ae0:	6c                   	insb   (%dx),%es:(%edi)
   35ae1:	69 64 20 4f 70 63 6f 	imul   $0x646f6370,0x4f(%eax,%eiz,1),%esp
   35ae8:	64 
   35ae9:	65 20 28             	and    %ch,%gs:(%eax)
   35aec:	55                   	push   %ebp
   35aed:	6e                   	outsb  %ds:(%esi),(%dx)
   35aee:	64 65 66 69 6e 65 64 	imul   $0x2064,%fs:%gs:0x65(%esi),%bp
   35af5:	20 
   35af6:	4f                   	dec    %edi
   35af7:	70 63                	jo     35b5c <task_fs+0x1d4>
   35af9:	6f                   	outsl  %ds:(%esi),(%dx)
   35afa:	64 65 29 00          	sub    %eax,%fs:%gs:(%eax)
   35afe:	00 00                	add    %al,(%eax)
   35b00:	23 4e 4d             	and    0x4d(%esi),%ecx
   35b03:	20 44 65 76          	and    %al,0x76(%ebp,%eiz,2)
   35b07:	69 63 65 20 4e 6f 74 	imul   $0x746f4e20,0x65(%ebx),%esp
   35b0e:	20 41 76             	and    %al,0x76(%ecx)
   35b11:	61                   	popa   
   35b12:	69 6c 61 62 6c 65 20 	imul   $0x2820656c,0x62(%ecx,%eiz,2),%ebp
   35b19:	28 
   35b1a:	4e                   	dec    %esi
   35b1b:	6f                   	outsl  %ds:(%esi),(%dx)
   35b1c:	20 4d 61             	and    %cl,0x61(%ebp)
   35b1f:	74 68                	je     35b89 <task_fs+0x201>
   35b21:	20 43 6f             	and    %al,0x6f(%ebx)
   35b24:	70 72                	jo     35b98 <task_fs+0x210>
   35b26:	6f                   	outsl  %ds:(%esi),(%dx)
   35b27:	63 65 73             	arpl   %sp,0x73(%ebp)
   35b2a:	73 6f                	jae    35b9b <task_fs+0x213>
   35b2c:	72 29                	jb     35b57 <task_fs+0x1cf>
   35b2e:	00 23                	add    %ah,(%ebx)
   35b30:	44                   	inc    %esp
   35b31:	46                   	inc    %esi
   35b32:	20 44 6f 75          	and    %al,0x75(%edi,%ebp,2)
   35b36:	62 6c 65 20          	bound  %ebp,0x20(%ebp,%eiz,2)
   35b3a:	46                   	inc    %esi
   35b3b:	61                   	popa   
   35b3c:	75 6c                	jne    35baa <task_fs+0x222>
   35b3e:	74 00                	je     35b40 <task_fs+0x1b8>
   35b40:	20 20                	and    %ah,(%eax)
   35b42:	20 20                	and    %ah,(%eax)
   35b44:	43                   	inc    %ebx
   35b45:	6f                   	outsl  %ds:(%esi),(%dx)
   35b46:	70 72                	jo     35bba <task_fs+0x232>
   35b48:	6f                   	outsl  %ds:(%esi),(%dx)
   35b49:	63 65 73             	arpl   %sp,0x73(%ebp)
   35b4c:	73 6f                	jae    35bbd <task_fs+0x235>
   35b4e:	72 20                	jb     35b70 <task_fs+0x1e8>
   35b50:	53                   	push   %ebx
   35b51:	65                   	gs
   35b52:	67 6d                	addr16 insl (%dx),%es:(%di)
   35b54:	65 6e                	outsb  %gs:(%esi),(%dx)
   35b56:	74 20                	je     35b78 <task_fs+0x1f0>
   35b58:	4f                   	dec    %edi
   35b59:	76 65                	jbe    35bc0 <task_fs+0x238>
   35b5b:	72 72                	jb     35bcf <task_fs+0x247>
   35b5d:	75 6e                	jne    35bcd <task_fs+0x245>
   35b5f:	20 28                	and    %ch,(%eax)
   35b61:	72 65                	jb     35bc8 <task_fs+0x240>
   35b63:	73 65                	jae    35bca <task_fs+0x242>
   35b65:	72 76                	jb     35bdd <task_fs+0x255>
   35b67:	65 64 29 00          	sub    %eax,%fs:%gs:(%eax)
   35b6b:	23 54 53 20          	and    0x20(%ebx,%edx,2),%edx
   35b6f:	49                   	dec    %ecx
   35b70:	6e                   	outsb  %ds:(%esi),(%dx)
   35b71:	76 61                	jbe    35bd4 <task_fs+0x24c>
   35b73:	6c                   	insb   (%dx),%es:(%edi)
   35b74:	69 64 20 54 53 53 00 	imul   $0x23005353,0x54(%eax,%eiz,1),%esp
   35b7b:	23 
   35b7c:	4e                   	dec    %esi
   35b7d:	50                   	push   %eax
   35b7e:	20 53 65             	and    %dl,0x65(%ebx)
   35b81:	67 6d                	addr16 insl (%dx),%es:(%di)
   35b83:	65 6e                	outsb  %gs:(%esi),(%dx)
   35b85:	74 20                	je     35ba7 <task_fs+0x21f>
   35b87:	4e                   	dec    %esi
   35b88:	6f                   	outsl  %ds:(%esi),(%dx)
   35b89:	74 20                	je     35bab <task_fs+0x223>
   35b8b:	50                   	push   %eax
   35b8c:	72 65                	jb     35bf3 <task_fs+0x26b>
   35b8e:	73 65                	jae    35bf5 <task_fs+0x26d>
   35b90:	6e                   	outsb  %ds:(%esi),(%dx)
   35b91:	74 00                	je     35b93 <task_fs+0x20b>
   35b93:	23 53 53             	and    0x53(%ebx),%edx
   35b96:	20 53 74             	and    %dl,0x74(%ebx)
   35b99:	61                   	popa   
   35b9a:	63 6b 2d             	arpl   %bp,0x2d(%ebx)
   35b9d:	53                   	push   %ebx
   35b9e:	65                   	gs
   35b9f:	67 6d                	addr16 insl (%dx),%es:(%di)
   35ba1:	65 6e                	outsb  %gs:(%esi),(%dx)
   35ba3:	74 20                	je     35bc5 <task_fs+0x23d>
   35ba5:	46                   	inc    %esi
   35ba6:	61                   	popa   
   35ba7:	75 6c                	jne    35c15 <task_fs+0x28d>
   35ba9:	74 00                	je     35bab <task_fs+0x223>
   35bab:	23 47 50             	and    0x50(%edi),%eax
   35bae:	20 47 65             	and    %al,0x65(%edi)
   35bb1:	6e                   	outsb  %ds:(%esi),(%dx)
   35bb2:	65                   	gs
   35bb3:	72 61                	jb     35c16 <task_fs+0x28e>
   35bb5:	6c                   	insb   (%dx),%es:(%edi)
   35bb6:	20 50 72             	and    %dl,0x72(%eax)
   35bb9:	6f                   	outsl  %ds:(%esi),(%dx)
   35bba:	74 65                	je     35c21 <task_fs+0x299>
   35bbc:	63 74 69 6f          	arpl   %si,0x6f(%ecx,%ebp,2)
   35bc0:	6e                   	outsb  %ds:(%esi),(%dx)
   35bc1:	00 23                	add    %ah,(%ebx)
   35bc3:	50                   	push   %eax
   35bc4:	46                   	inc    %esi
   35bc5:	20 50 61             	and    %dl,0x61(%eax)
   35bc8:	67 65 20 46 61       	addr16 and %al,%gs:0x61(%bp)
   35bcd:	75 6c                	jne    35c3b <task_fs+0x2b3>
   35bcf:	74 00                	je     35bd1 <task_fs+0x249>
   35bd1:	00 00                	add    %al,(%eax)
   35bd3:	00 2d 2d 20 20 28    	add    %ch,0x2820202d
   35bd9:	49                   	dec    %ecx
   35bda:	6e                   	outsb  %ds:(%esi),(%dx)
   35bdb:	74 65                	je     35c42 <task_fs+0x2ba>
   35bdd:	6c                   	insb   (%dx),%es:(%edi)
   35bde:	20 72 65             	and    %dh,0x65(%edx)
   35be1:	73 65                	jae    35c48 <task_fs+0x2c0>
   35be3:	72 76                	jb     35c5b <task_fs+0x2d3>
   35be5:	65 64 2e 20 44 6f 20 	and    %al,%cs:%fs:%gs:0x20(%edi,%ebp,2)
   35bec:	6e                   	outsb  %ds:(%esi),(%dx)
   35bed:	6f                   	outsl  %ds:(%esi),(%dx)
   35bee:	74 20                	je     35c10 <task_fs+0x288>
   35bf0:	75 73                	jne    35c65 <task_fs+0x2dd>
   35bf2:	65 2e 29 00          	sub    %eax,%cs:%gs:(%eax)
   35bf6:	00 00                	add    %al,(%eax)
   35bf8:	23 4d 46             	and    0x46(%ebp),%ecx
   35bfb:	20 78 38             	and    %bh,0x38(%eax)
   35bfe:	37                   	aaa    
   35bff:	20 46 50             	and    %al,0x50(%esi)
   35c02:	55                   	push   %ebp
   35c03:	20 46 6c             	and    %al,0x6c(%esi)
   35c06:	6f                   	outsl  %ds:(%esi),(%dx)
   35c07:	61                   	popa   
   35c08:	74 69                	je     35c73 <task_fs+0x2eb>
   35c0a:	6e                   	outsb  %ds:(%esi),(%dx)
   35c0b:	67 2d 50 6f 69 6e    	addr16 sub $0x6e696f50,%eax
   35c11:	74 20                	je     35c33 <task_fs+0x2ab>
   35c13:	45                   	inc    %ebp
   35c14:	72 72                	jb     35c88 <C.3.1262+0x8>
   35c16:	6f                   	outsl  %ds:(%esi),(%dx)
   35c17:	72 20                	jb     35c39 <task_fs+0x2b1>
   35c19:	28 4d 61             	sub    %cl,0x61(%ebp)
   35c1c:	74 68                	je     35c86 <C.3.1262+0x6>
   35c1e:	20 46 61             	and    %al,0x61(%esi)
   35c21:	75 6c                	jne    35c8f <C.3.1262+0xf>
   35c23:	74 29                	je     35c4e <task_fs+0x2c6>
   35c25:	00 23                	add    %ah,(%ebx)
   35c27:	41                   	inc    %ecx
   35c28:	43                   	inc    %ebx
   35c29:	20 41 6c             	and    %al,0x6c(%ecx)
   35c2c:	69 67 6e 6d 65 6e 74 	imul   $0x746e656d,0x6e(%edi),%esp
   35c33:	20 43 68             	and    %al,0x68(%ebx)
   35c36:	65 63 6b 00          	arpl   %bp,%gs:0x0(%ebx)
   35c3a:	23 4d 43             	and    0x43(%ebp),%ecx
   35c3d:	20 4d 61             	and    %cl,0x61(%ebp)
   35c40:	63 68 69             	arpl   %bp,0x69(%eax)
   35c43:	6e                   	outsb  %ds:(%esi),(%dx)
   35c44:	65 20 43 68          	and    %al,%gs:0x68(%ebx)
   35c48:	65 63 6b 00          	arpl   %bp,%gs:0x0(%ebx)
   35c4c:	23 58 46             	and    0x46(%eax),%ebx
   35c4f:	20 53 49             	and    %dl,0x49(%ebx)
   35c52:	4d                   	dec    %ebp
   35c53:	44                   	inc    %esp
   35c54:	20 46 6c             	and    %al,0x6c(%esi)
   35c57:	6f                   	outsl  %ds:(%esi),(%dx)
   35c58:	61                   	popa   
   35c59:	74 69                	je     35cc4 <C.3.1262+0x44>
   35c5b:	6e                   	outsb  %ds:(%esi),(%dx)
   35c5c:	67 2d 50 6f 69 6e    	addr16 sub $0x6e696f50,%eax
   35c62:	74 20                	je     35c84 <C.3.1262+0x4>
   35c64:	45                   	inc    %ebp
   35c65:	78 63                	js     35cca <C.3.1262+0x4a>
   35c67:	65                   	gs
   35c68:	70 74                	jo     35cde <C.3.1262+0x5e>
   35c6a:	69 6f 6e 00 00 00 00 	imul   $0x0,0x6e(%edi),%ebp
	...

00035c80 <C.3.1262>:
   35c80:	72 5a                	jb     35cdc <C.3.1262+0x5c>
   35c82:	03 00                	add    (%eax),%eax
   35c84:	83 5a 03 00          	sbbl   $0x0,0x3(%edx)
   35c88:	90                   	nop
   35c89:	5a                   	pop    %edx
   35c8a:	03 00                	add    (%eax),%eax
   35c8c:	a2 5a 03 00 b1       	mov    %al,0xb100035a
   35c91:	5a                   	pop    %edx
   35c92:	03 00                	add    (%eax),%eax
   35c94:	be 5a 03 00 d8       	mov    $0xd800035a,%esi
   35c99:	5a                   	pop    %edx
   35c9a:	03 00                	add    (%eax),%eax
   35c9c:	00 5b 03             	add    %bl,0x3(%ebx)
   35c9f:	00 2f                	add    %ch,(%edi)
   35ca1:	5b                   	pop    %ebx
   35ca2:	03 00                	add    (%eax),%eax
   35ca4:	40                   	inc    %eax
   35ca5:	5b                   	pop    %ebx
   35ca6:	03 00                	add    (%eax),%eax
   35ca8:	6b 5b 03 00          	imul   $0x0,0x3(%ebx),%ebx
   35cac:	7b 5b                	jnp    35d09 <C.3.1262+0x89>
   35cae:	03 00                	add    (%eax),%eax
   35cb0:	93                   	xchg   %eax,%ebx
   35cb1:	5b                   	pop    %ebx
   35cb2:	03 00                	add    (%eax),%eax
   35cb4:	ab                   	stos   %eax,%es:(%edi)
   35cb5:	5b                   	pop    %ebx
   35cb6:	03 00                	add    (%eax),%eax
   35cb8:	c2 5b 03             	ret    $0x35b
   35cbb:	00 d4                	add    %dl,%ah
   35cbd:	5b                   	pop    %ebx
   35cbe:	03 00                	add    (%eax),%eax
   35cc0:	f8                   	clc    
   35cc1:	5b                   	pop    %ebx
   35cc2:	03 00                	add    (%eax),%eax
   35cc4:	26                   	es
   35cc5:	5c                   	pop    %esp
   35cc6:	03 00                	add    (%eax),%eax
   35cc8:	3a 5c 03 00          	cmp    0x0(%ebx,%eax,1),%bl
   35ccc:	4c                   	dec    %esp
   35ccd:	5c                   	pop    %esp
   35cce:	03 00                	add    (%eax),%eax
   35cd0:	7b 17                	jnp    35ce9 <C.3.1262+0x69>
   35cd2:	03 00                	add    (%eax),%eax
   35cd4:	88 17                	mov    %dl,(%edi)
   35cd6:	03 00                	add    (%eax),%eax
   35cd8:	95                   	xchg   %eax,%ebp
   35cd9:	17                   	pop    %ss
   35cda:	03 00                	add    (%eax),%eax
   35cdc:	9f                   	lahf   
   35cdd:	17                   	pop    %ss
   35cde:	03 00                	add    (%eax),%eax
   35ce0:	a9 17 03 00 b3       	test   $0xb3000317,%eax
   35ce5:	17                   	pop    %ss
   35ce6:	03 00                	add    (%eax),%eax
   35ce8:	bd 17 03 00 dc       	mov    $0xdc000317,%ebp
   35ced:	17                   	pop    %ss
   35cee:	03 00                	add    (%eax),%eax
   35cf0:	fb                   	sti    
   35cf1:	17                   	pop    %ss
   35cf2:	03 00                	add    (%eax),%eax
   35cf4:	66                   	data16
   35cf5:	18 03                	sbb    %al,(%ebx)
   35cf7:	00 72 18             	add    %dh,0x18(%edx)
   35cfa:	03 00                	add    (%eax),%eax
   35cfc:	7e 18                	jle    35d16 <C.3.1262+0x96>
   35cfe:	03 00                	add    (%eax),%eax
   35d00:	8a 18                	mov    (%eax),%bl
   35d02:	03 00                	add    (%eax),%eax
   35d04:	96                   	xchg   %eax,%esi
   35d05:	18 03                	sbb    %al,(%ebx)
   35d07:	00 4b 19             	add    %cl,0x19(%ebx)
   35d0a:	03 00                	add    (%eax),%eax
   35d0c:	1e                   	push   %ds
   35d0d:	19 03                	sbb    %eax,(%ebx)
   35d0f:	00 03                	add    %al,(%ebx)
   35d11:	19 03                	sbb    %eax,(%ebx)
   35d13:	00 30                	add    %dh,(%eax)
   35d15:	19 03                	sbb    %eax,(%ebx)
   35d17:	00 15 19 03 00 39    	add    %dl,0x39000319
   35d1d:	19 03                	sbb    %eax,(%ebx)
   35d1f:	00 52 19             	add    %dl,0x19(%edx)
   35d22:	03 00                	add    (%eax),%eax
   35d24:	42                   	inc    %edx
   35d25:	19 03                	sbb    %eax,(%ebx)
   35d27:	00 fa                	add    %bh,%dl
   35d29:	18 03                	sbb    %al,(%ebx)
   35d2b:	00 27                	add    %ah,(%edi)
   35d2d:	19 03                	sbb    %eax,(%ebx)
   35d2f:	00 0c 19             	add    %cl,(%ecx,%ebx,1)
   35d32:	03 00                	add    (%eax),%eax
   35d34:	68 61 68 61 20       	push   $0x20616861
   35d39:	7e 22                	jle    35d5d <C.3.1262+0xdd>
   35d3b:	6b 65 72 6e          	imul   $0x6e,0x72(%ebp),%esp
   35d3f:	65                   	gs
   35d40:	6c                   	insb   (%dx),%es:(%edi)
   35d41:	5f                   	pop    %edi
   35d42:	6d                   	insl   (%dx),%es:(%edi)
   35d43:	61                   	popa   
   35d44:	69 6e 22 20 62 65 67 	imul   $0x67656220,0x22(%esi),%ebp
   35d4b:	69 6e 73 2d 2d 2d 2d 	imul   $0x2d2d2d2d,0x73(%esi),%ebp
   35d52:	2d 0a 00 20 00       	sub    $0x20000a,%eax
   35d57:	00 25 73 20 62 65    	add    %ah,0x65622073
   35d5d:	67 69 6e 67 20 74 6f 	addr16 imul $0x206f7420,0x67(%bp),%ebp
   35d64:	20 
   35d65:	73 6c                	jae    35dd3 <C.3.1262+0x153>
   35d67:	65                   	gs
   35d68:	65                   	gs
   35d69:	70 2e                	jo     35d99 <C.3.1262+0x119>
   35d6b:	74 69                	je     35dd6 <C.3.1262+0x156>
   35d6d:	63 6b 73             	arpl   %bp,0x73(%ebx)
   35d70:	3a 25 64 2e 2e 2e    	cmp    0x2e2e2e64,%ah
   35d76:	00 25 73 20 77 61    	add    %ah,0x61772073
   35d7c:	6b 65 20 75          	imul   $0x75,0x20(%ebp),%esp
   35d80:	70 20                	jo     35da2 <C.3.1262+0x122>
   35d82:	74 69                	je     35ded <C.3.1262+0x16d>
   35d84:	63 6b 73             	arpl   %bp,0x73(%ebx)
   35d87:	3a 25 64 00 3c 54    	cmp    0x543c0064,%ah
   35d8d:	65                   	gs
   35d8e:	73 74                	jae    35e04 <C.3.1262+0x184>
   35d90:	41                   	inc    %ecx
   35d91:	3a 25 64 3e 00 64    	cmp    0x64003e64,%ah
   35d97:	6f                   	outsl  %ds:(%esi),(%dx)
   35d98:	20 73 74             	and    %dh,0x74(%ebx)
   35d9b:	68 00 3c 25 73       	push   $0x73253c00
   35da0:	3a 25 64 3e 00 25    	cmp    0x25003e64,%ah
   35da6:	63 20                	arpl   %sp,(%eax)
   35da8:	21 21                	and    %esp,(%ecx)
   35daa:	70 61                	jo     35e0d <C.3.1262+0x18d>
   35dac:	6e                   	outsb  %ds:(%esi),(%dx)
   35dad:	69 63 21 21 20 25 73 	imul   $0x73252021,0x21(%ebx),%esp
   35db4:	00 00                	add    %al,(%eax)
   35db6:	00 00                	add    %al,(%eax)
   35db8:	43                   	inc    %ebx
   35db9:	4c                   	dec    %esp
   35dba:	4f                   	dec    %edi
   35dbb:	43                   	inc    %ebx
   35dbc:	4b                   	dec    %ebx
   35dbd:	3a 20                	cmp    (%eax),%ah
   35dbf:	69 6c 6c 65 67 61 6c 	imul   $0x206c6167,0x65(%esp,%ebp,2),%ebp
   35dc6:	20 
   35dc7:	72 65                	jb     35e2e <C.3.1262+0x1ae>
   35dc9:	71 75                	jno    35e40 <C.3.1262+0x1c0>
   35dcb:	65                   	gs
   35dcc:	73 74                	jae    35e42 <C.3.1262+0x1c2>
   35dce:	20 66 72             	and    %ah,0x72(%esi)
   35dd1:	6f                   	outsl  %ds:(%esi),(%dx)
   35dd2:	6d                   	insl   (%dx),%es:(%edi)
   35dd3:	20 2e                	and    %ch,(%esi)
   35dd5:	2e                   	cs
   35dd6:	2e                   	cs
   35dd7:	25 64 00 25 73       	and    $0x73250064,%eax
   35ddc:	27                   	daa    
   35ddd:	73 20                	jae    35dff <C.3.1262+0x17f>
   35ddf:	54                   	push   %esp
   35de0:	69 6d 65 72 20 65 78 	imul   $0x78652072,0x65(%ebp),%ebp
   35de7:	70 69                	jo     35e52 <C.3.1262+0x1d2>
   35de9:	72 65                	jb     35e50 <C.3.1262+0x1d0>
   35deb:	3c 25                	cmp    $0x25,%al
   35ded:	64 3e 00 54 69 6d    	add    %dl,%ds:%fs:0x6d(%ecx,%ebp,2)
   35df3:	65                   	gs
   35df4:	72 20                	jb     35e16 <C.3.1262+0x196>
   35df6:	73 65                	jae    35e5d <C.3.1262+0x1dd>
   35df8:	74 65                	je     35e5f <C.3.1262+0x1df>
   35dfa:	64 20 3c 25 64 3e 00 	and    %bh,%fs:0x21003e64(,%eiz,1)
   35e01:	21 
   35e02:	00 00                	add    %al,(%eax)
   35e04:	6b 65 72 6e          	imul   $0x6e,0x72(%ebp),%esp
   35e08:	65                   	gs
   35e09:	6c                   	insb   (%dx),%es:(%edi)
   35e0a:	2f                   	das    
   35e0b:	70 72                	jo     35e7f <C.3.1262+0x1ff>
   35e0d:	6f                   	outsl  %ds:(%esi),(%dx)
   35e0e:	63 2e                	arpl   %bp,(%esi)
   35e10:	63 00                	arpl   %ax,(%eax)
   35e12:	6b 5f 72 65          	imul   $0x65,0x72(%edi),%ebx
   35e16:	65 6e                	outsb  %gs:(%esi),(%dx)
   35e18:	74 65                	je     35e7f <C.3.1262+0x1ff>
   35e1a:	72 20                	jb     35e3c <C.3.1262+0x1bc>
   35e1c:	3d 3d 20 30 00       	cmp    $0x30203d,%eax
   35e21:	00 00                	add    %al,(%eax)
   35e23:	00 28                	add    %ch,(%eax)
   35e25:	73 72                	jae    35e99 <C.3.1262+0x219>
   35e27:	63 5f 64             	arpl   %bx,0x64(%edi)
   35e2a:	65                   	gs
   35e2b:	73 74                	jae    35ea1 <C.3.1262+0x221>
   35e2d:	20 3e                	and    %bh,(%esi)
   35e2f:	3d 20 30 20 26       	cmp    $0x26203020,%eax
   35e34:	26 20 73 72          	and    %dh,%es:0x72(%ebx)
   35e38:	63 5f 64             	arpl   %bx,0x64(%edi)
   35e3b:	65                   	gs
   35e3c:	73 74                	jae    35eb2 <C.3.1262+0x232>
   35e3e:	20 3c 20             	and    %bh,(%eax,%eiz,1)
   35e41:	4e                   	dec    %esi
   35e42:	52                   	push   %edx
   35e43:	5f                   	pop    %edi
   35e44:	54                   	push   %esp
   35e45:	41                   	inc    %ecx
   35e46:	53                   	push   %ebx
   35e47:	4b                   	dec    %ebx
   35e48:	53                   	push   %ebx
   35e49:	20 2b                	and    %ch,(%ebx)
   35e4b:	20 4e 52             	and    %cl,0x52(%esi)
   35e4e:	5f                   	pop    %edi
   35e4f:	50                   	push   %eax
   35e50:	52                   	push   %edx
   35e51:	4f                   	dec    %edi
   35e52:	43                   	inc    %ebx
   35e53:	53                   	push   %ebx
   35e54:	29 20                	sub    %esp,(%eax)
   35e56:	7c 7c                	jl     35ed4 <C.3.1262+0x254>
   35e58:	20 73 72             	and    %dh,0x72(%ebx)
   35e5b:	63 5f 64             	arpl   %bx,0x64(%edi)
   35e5e:	65                   	gs
   35e5f:	73 74                	jae    35ed5 <C.3.1262+0x255>
   35e61:	20 3d 3d 20 41 4e    	and    %bh,0x4e41203d
   35e67:	59                   	pop    %ecx
   35e68:	20 7c 7c 20          	and    %bh,0x20(%esp,%edi,2)
   35e6c:	73 72                	jae    35ee0 <C.3.1262+0x260>
   35e6e:	63 5f 64             	arpl   %bx,0x64(%edi)
   35e71:	65                   	gs
   35e72:	73 74                	jae    35ee8 <C.3.1262+0x268>
   35e74:	20 3d 3d 20 49 4e    	and    %bh,0x4e49203d
   35e7a:	54                   	push   %esp
   35e7b:	45                   	inc    %ebp
   35e7c:	52                   	push   %edx
   35e7d:	52                   	push   %edx
   35e7e:	55                   	push   %ebp
   35e7f:	50                   	push   %eax
   35e80:	54                   	push   %esp
   35e81:	00 6d 6c             	add    %ch,0x6c(%ebp)
   35e84:	61                   	popa   
   35e85:	2d 3e 73 6f 75       	sub    $0x756f733e,%eax
   35e8a:	72 63                	jb     35eef <C.3.1262+0x26f>
   35e8c:	65 20 21             	and    %ah,%gs:(%ecx)
   35e8f:	3d 20 73 72 63       	cmp    $0x63727320,%eax
   35e94:	5f                   	pop    %edi
   35e95:	64                   	fs
   35e96:	65                   	gs
   35e97:	73 74                	jae    35f0d <C.3.1262+0x28d>
   35e99:	00 00                	add    %al,(%eax)
   35e9b:	00 7b 73             	add    %bh,0x73(%ebx)
   35e9e:	79 73                	jns    35f13 <C.3.1262+0x293>
   35ea0:	5f                   	pop    %edi
   35ea1:	73 65                	jae    35f08 <C.3.1262+0x288>
   35ea3:	6e                   	outsb  %ds:(%esi),(%dx)
   35ea4:	64                   	fs
   35ea5:	72 65                	jb     35f0c <C.3.1262+0x28c>
   35ea7:	63 7d 20             	arpl   %di,0x20(%ebp)
   35eaa:	69 6e 76 61 6c 69 64 	imul   $0x64696c61,0x76(%esi),%ebp
   35eb1:	20 66 75             	and    %ah,0x75(%esi)
   35eb4:	6e                   	outsb  %ds:(%esi),(%dx)
   35eb5:	63 74 69 6f          	arpl   %si,0x6f(%ecx,%ebp,2)
   35eb9:	6e                   	outsb  %ds:(%esi),(%dx)
   35eba:	3a 20                	cmp    (%eax),%ah
   35ebc:	25 64 20 28 53       	and    $0x53282064,%eax
   35ec1:	45                   	inc    %ebp
   35ec2:	4e                   	dec    %esi
   35ec3:	44                   	inc    %esp
   35ec4:	3a 25 64 2c 20 52    	cmp    0x52202c64,%ah
   35eca:	45                   	inc    %ebp
   35ecb:	43                   	inc    %ebx
   35ecc:	45                   	inc    %ebp
   35ecd:	49                   	dec    %ecx
   35ece:	56                   	push   %esi
   35ecf:	45                   	inc    %ebp
   35ed0:	3a 25 64 29 2e 00    	cmp    0x2e2964,%ah
   35ed6:	00 00                	add    %al,(%eax)
   35ed8:	28 66 75             	sub    %ah,0x75(%esi)
   35edb:	6e                   	outsb  %ds:(%esi),(%dx)
   35edc:	63 74 69 6f          	arpl   %si,0x6f(%ecx,%ebp,2)
   35ee0:	6e                   	outsb  %ds:(%esi),(%dx)
   35ee1:	20 3d 3d 20 42 4f    	and    %bh,0x4f42203d
   35ee7:	54                   	push   %esp
   35ee8:	48                   	dec    %eax
   35ee9:	29 20                	sub    %esp,(%eax)
   35eeb:	7c 7c                	jl     35f69 <C.3.1262+0x2e9>
   35eed:	20 28                	and    %ch,(%eax)
   35eef:	66                   	data16
   35ef0:	75 6e                	jne    35f60 <C.3.1262+0x2e0>
   35ef2:	63 74 69 6f          	arpl   %si,0x6f(%ecx,%ebp,2)
   35ef6:	6e                   	outsb  %ds:(%esi),(%dx)
   35ef7:	20 3d 3d 20 53 45    	and    %bh,0x4553203d
   35efd:	4e                   	dec    %esi
   35efe:	44                   	inc    %esp
   35eff:	29 20                	sub    %esp,(%eax)
   35f01:	7c 7c                	jl     35f7f <C.3.1262+0x2ff>
   35f03:	20 28                	and    %ch,(%eax)
   35f05:	66                   	data16
   35f06:	75 6e                	jne    35f76 <C.3.1262+0x2f6>
   35f08:	63 74 69 6f          	arpl   %si,0x6f(%ecx,%ebp,2)
   35f0c:	6e                   	outsb  %ds:(%esi),(%dx)
   35f0d:	20 3d 3d 20 52 45    	and    %bh,0x4552203d
   35f13:	43                   	inc    %ebx
   35f14:	45                   	inc    %ebp
   35f15:	49                   	dec    %ecx
   35f16:	56                   	push   %esi
   35f17:	45                   	inc    %ebp
   35f18:	29 00                	sub    %eax,(%eax)
   35f1a:	6c                   	insb   (%dx),%es:(%edi)
   35f1b:	61                   	popa   
   35f1c:	20 3d 3d 20 28 75    	and    %bh,0x7528203d
   35f22:	33 32                	xor    (%edx),%esi
   35f24:	29 76 61             	sub    %esi,0x61(%esi)
   35f27:	00 70 2d             	add    %dh,0x2d(%eax)
   35f2a:	3e 70 5f             	jo,pt  35f8c <C.3.1262+0x30c>
   35f2d:	66                   	data16
   35f2e:	6c                   	insb   (%dx),%es:(%edi)
   35f2f:	61                   	popa   
   35f30:	67 73 00             	addr16 jae 35f33 <C.3.1262+0x2b3>
   35f33:	70 2d                	jo     35f62 <C.3.1262+0x2e2>
   35f35:	3e 70 5f             	jo,pt  35f97 <C.3.1262+0x317>
   35f38:	66                   	data16
   35f39:	6c                   	insb   (%dx),%es:(%edi)
   35f3a:	61                   	popa   
   35f3b:	67 73 20             	addr16 jae 35f5e <C.3.1262+0x2de>
   35f3e:	3d 3d 20 30 00       	cmp    $0x30203d,%eax
   35f43:	3d 5f 3d 53 65       	cmp    $0x65533d5f,%eax
   35f48:	6e                   	outsb  %ds:(%esi),(%dx)
   35f49:	64 3a 25 73 00 70 2d 	cmp    %fs:0x2d700073,%ah
   35f50:	3e 70 5f             	jo,pt  35fb2 <C.3.1262+0x332>
   35f53:	6d                   	insl   (%dx),%es:(%edi)
   35f54:	73 67                	jae    35fbd <C.3.1262+0x33d>
   35f56:	00 2d 3e 25 73 00    	add    %ch,0x73253e
   35f5c:	3d 5f 3d 00 3d       	cmp    $0x3d003d5f,%eax
   35f61:	5f                   	pop    %edi
   35f62:	3d 52 65 63 69       	cmp    $0x69636552,%eax
   35f67:	65                   	gs
   35f68:	76 65                	jbe    35fcf <C.3.1262+0x34f>
   35f6a:	3a 25 73 00 70 72    	cmp    0x72700073,%ah
   35f70:	6f                   	outsl  %ds:(%esi),(%dx)
   35f71:	63 32                	arpl   %si,(%edx)
   35f73:	70 69                	jo     35fde <C.3.1262+0x35e>
   35f75:	64 28 73 65          	sub    %dh,%fs:0x65(%ebx)
   35f79:	6e                   	outsb  %ds:(%esi),(%dx)
   35f7a:	64                   	fs
   35f7b:	65                   	gs
   35f7c:	72 29                	jb     35fa7 <C.3.1262+0x327>
   35f7e:	20 21                	and    %ah,(%ecx)
   35f80:	3d 20 64 65 73       	cmp    $0x73656420,%eax
   35f85:	74 00                	je     35f87 <C.3.1262+0x307>
   35f87:	3e                   	ds
   35f88:	3e                   	ds
   35f89:	44                   	inc    %esp
   35f8a:	45                   	inc    %ebp
   35f8b:	41                   	inc    %ecx
   35f8c:	44                   	inc    %esp
   35f8d:	4c                   	dec    %esp
   35f8e:	4f                   	dec    %edi
   35f8f:	43                   	inc    %ebx
   35f90:	4b                   	dec    %ebx
   35f91:	3c 3c                	cmp    $0x3c,%al
   35f93:	20 25 73 2d 3e 25    	and    %ah,0x253e2d73
   35f99:	73 00                	jae    35f9b <C.3.1262+0x31b>
   35f9b:	70 5f                	jo     35ffc <C.3.1262+0x37c>
   35f9d:	64                   	fs
   35f9e:	65                   	gs
   35f9f:	73 74                	jae    36015 <C.3.1262+0x395>
   35fa1:	2d 3e 70 5f 6d       	sub    $0x6d5f703e,%eax
   35fa6:	73 67                	jae    3600f <C.3.1262+0x38f>
   35fa8:	00 6d 00             	add    %ch,0x0(%ebp)
   35fab:	70 5f                	jo     3600c <C.3.1262+0x38c>
   35fad:	64                   	fs
   35fae:	65                   	gs
   35faf:	73 74                	jae    36025 <C.3.1262+0x3a5>
   35fb1:	2d 3e 70 5f 66       	sub    $0x665f703e,%eax
   35fb6:	6c                   	insb   (%dx),%es:(%edi)
   35fb7:	61                   	popa   
   35fb8:	67 73 20             	addr16 jae 35fdb <C.3.1262+0x35b>
   35fbb:	3d 3d 20 30 00       	cmp    $0x30203d,%eax
   35fc0:	70 5f                	jo     36021 <C.3.1262+0x3a1>
   35fc2:	64                   	fs
   35fc3:	65                   	gs
   35fc4:	73 74                	jae    3603a <C.3.1262+0x3ba>
   35fc6:	2d 3e 70 5f 6d       	sub    $0x6d5f703e,%eax
   35fcb:	73 67                	jae    36034 <C.3.1262+0x3b4>
   35fcd:	20 3d 3d 20 30 00    	and    %bh,0x30203d
   35fd3:	70 5f                	jo     36034 <C.3.1262+0x3b4>
   35fd5:	64                   	fs
   35fd6:	65                   	gs
   35fd7:	73 74                	jae    3604d <C.3.1262+0x3cd>
   35fd9:	2d 3e 70 5f 72       	sub    $0x725f703e,%eax
   35fde:	65 63 76 66          	arpl   %si,%gs:0x66(%esi)
   35fe2:	72 6f                	jb     36053 <C.3.1262+0x3d3>
   35fe4:	6d                   	insl   (%dx),%es:(%edi)
   35fe5:	20 3d 3d 20 4e 4f    	and    %bh,0x4f4e203d
   35feb:	5f                   	pop    %edi
   35fec:	54                   	push   %esp
   35fed:	41                   	inc    %ecx
   35fee:	53                   	push   %ebx
   35fef:	4b                   	dec    %ebx
   35ff0:	00 70 5f             	add    %dh,0x5f(%eax)
   35ff3:	64                   	fs
   35ff4:	65                   	gs
   35ff5:	73 74                	jae    3606b <C.3.1262+0x3eb>
   35ff7:	2d 3e 70 5f 73       	sub    $0x735f703e,%eax
   35ffc:	65 6e                	outsb  %gs:(%esi),(%dx)
   35ffe:	64                   	fs
   35fff:	74 6f                	je     36070 <C.3.1262+0x3f0>
   36001:	20 3d 3d 20 4e 4f    	and    %bh,0x4f4e203d
   36007:	5f                   	pop    %edi
   36008:	54                   	push   %esp
   36009:	41                   	inc    %ecx
   3600a:	53                   	push   %ebx
   3600b:	4b                   	dec    %ebx
   3600c:	00 73 65             	add    %dh,0x65(%ebx)
   3600f:	6e                   	outsb  %ds:(%esi),(%dx)
   36010:	64                   	fs
   36011:	65                   	gs
   36012:	72 2d                	jb     36041 <C.3.1262+0x3c1>
   36014:	3e 70 5f             	jo,pt  36076 <C.3.1262+0x3f6>
   36017:	66                   	data16
   36018:	6c                   	insb   (%dx),%es:(%edi)
   36019:	61                   	popa   
   3601a:	67 73 20             	addr16 jae 3603d <C.3.1262+0x3bd>
   3601d:	3d 3d 20 30 00       	cmp    $0x30203d,%eax
   36022:	73 65                	jae    36089 <C.3.1262+0x409>
   36024:	6e                   	outsb  %ds:(%esi),(%dx)
   36025:	64                   	fs
   36026:	65                   	gs
   36027:	72 2d                	jb     36056 <C.3.1262+0x3d6>
   36029:	3e 70 5f             	jo,pt  3608b <C.3.1262+0x40b>
   3602c:	6d                   	insl   (%dx),%es:(%edi)
   3602d:	73 67                	jae    36096 <C.3.1262+0x416>
   3602f:	20 3d 3d 20 30 00    	and    %bh,0x30203d
   36035:	73 65                	jae    3609c <C.3.1262+0x41c>
   36037:	6e                   	outsb  %ds:(%esi),(%dx)
   36038:	64                   	fs
   36039:	65                   	gs
   3603a:	72 2d                	jb     36069 <C.3.1262+0x3e9>
   3603c:	3e 70 5f             	jo,pt  3609e <C.3.1262+0x41e>
   3603f:	72 65                	jb     360a6 <C.3.1262+0x426>
   36041:	63 76 66             	arpl   %si,0x66(%esi)
   36044:	72 6f                	jb     360b5 <C.3.1262+0x435>
   36046:	6d                   	insl   (%dx),%es:(%edi)
   36047:	20 3d 3d 20 4e 4f    	and    %bh,0x4f4e203d
   3604d:	5f                   	pop    %edi
   3604e:	54                   	push   %esp
   3604f:	41                   	inc    %ecx
   36050:	53                   	push   %ebx
   36051:	4b                   	dec    %ebx
   36052:	00 73 65             	add    %dh,0x65(%ebx)
   36055:	6e                   	outsb  %ds:(%esi),(%dx)
   36056:	64                   	fs
   36057:	65                   	gs
   36058:	72 2d                	jb     36087 <C.3.1262+0x407>
   3605a:	3e 70 5f             	jo,pt  360bc <C.3.1262+0x43c>
   3605d:	73 65                	jae    360c4 <C.3.1262+0x444>
   3605f:	6e                   	outsb  %ds:(%esi),(%dx)
   36060:	64                   	fs
   36061:	74 6f                	je     360d2 <C.3.1262+0x452>
   36063:	20 3d 3d 20 4e 4f    	and    %bh,0x4f4e203d
   36069:	5f                   	pop    %edi
   3606a:	54                   	push   %esp
   3606b:	41                   	inc    %ecx
   3606c:	53                   	push   %ebx
   3606d:	4b                   	dec    %ebx
   3606e:	00 73 65             	add    %dh,0x65(%ebx)
   36071:	6e                   	outsb  %ds:(%esi),(%dx)
   36072:	64                   	fs
   36073:	65                   	gs
   36074:	72 2d                	jb     360a3 <C.3.1262+0x423>
   36076:	3e 70 5f             	jo,pt  360d8 <C.3.1262+0x458>
   36079:	66                   	data16
   3607a:	6c                   	insb   (%dx),%es:(%edi)
   3607b:	61                   	popa   
   3607c:	67 73 20             	addr16 jae 3609f <C.3.1262+0x41f>
   3607f:	3d 3d 20 53 45       	cmp    $0x4553203d,%eax
   36084:	4e                   	dec    %esi
   36085:	44                   	inc    %esp
   36086:	49                   	dec    %ecx
   36087:	4e                   	dec    %esi
   36088:	47                   	inc    %edi
   36089:	00 73 65             	add    %dh,0x65(%ebx)
   3608c:	6e                   	outsb  %ds:(%esi),(%dx)
   3608d:	64                   	fs
   3608e:	65                   	gs
   3608f:	72 2d                	jb     360be <C.3.1262+0x43e>
   36091:	3e 70 5f             	jo,pt  360f3 <C.3.1262+0x473>
   36094:	6d                   	insl   (%dx),%es:(%edi)
   36095:	73 67                	jae    360fe <C.3.1262+0x47e>
   36097:	20 21                	and    %ah,(%ecx)
   36099:	3d 20 30 00 73       	cmp    $0x73003020,%eax
   3609e:	65 6e                	outsb  %gs:(%esi),(%dx)
   360a0:	64                   	fs
   360a1:	65                   	gs
   360a2:	72 2d                	jb     360d1 <C.3.1262+0x451>
   360a4:	3e 70 5f             	jo,pt  36106 <C.3.1262+0x486>
   360a7:	73 65                	jae    3610e <C.3.1262+0x48e>
   360a9:	6e                   	outsb  %ds:(%esi),(%dx)
   360aa:	64                   	fs
   360ab:	74 6f                	je     3611c <C.3.1262+0x49c>
   360ad:	20 3d 3d 20 64 65    	and    %bh,0x6564203d
   360b3:	73 74                	jae    36129 <C.3.1262+0x4a9>
   360b5:	00 00                	add    %al,(%eax)
   360b7:	00 70 72             	add    %dh,0x72(%eax)
   360ba:	6f                   	outsl  %ds:(%esi),(%dx)
   360bb:	63 32                	arpl   %si,(%edx)
   360bd:	70 69                	jo     36128 <C.3.1262+0x4a8>
   360bf:	64 28 70 5f          	sub    %dh,%fs:0x5f(%eax)
   360c3:	77 68                	ja     3612d <C.3.1262+0x4ad>
   360c5:	6f                   	outsl  %ds:(%esi),(%dx)
   360c6:	5f                   	pop    %edi
   360c7:	77 61                	ja     3612a <C.3.1262+0x4aa>
   360c9:	6e                   	outsb  %ds:(%esi),(%dx)
   360ca:	6e                   	outsb  %ds:(%esi),(%dx)
   360cb:	61                   	popa   
   360cc:	5f                   	pop    %edi
   360cd:	72 65                	jb     36134 <C.3.1262+0x4b4>
   360cf:	63 76 29             	arpl   %si,0x29(%esi)
   360d2:	20 21                	and    %ah,(%ecx)
   360d4:	3d 20 73 72 63       	cmp    $0x63727320,%eax
   360d9:	00 00                	add    %al,(%eax)
   360db:	00 70 5f             	add    %dh,0x5f(%eax)
   360de:	77 68                	ja     36148 <C.3.1262+0x4c8>
   360e0:	6f                   	outsl  %ds:(%esi),(%dx)
   360e1:	5f                   	pop    %edi
   360e2:	77 61                	ja     36145 <C.3.1262+0x4c5>
   360e4:	6e                   	outsb  %ds:(%esi),(%dx)
   360e5:	6e                   	outsb  %ds:(%esi),(%dx)
   360e6:	61                   	popa   
   360e7:	5f                   	pop    %edi
   360e8:	72 65                	jb     3614f <C.3.1262+0x4cf>
   360ea:	63 76 2d             	arpl   %si,0x2d(%esi)
   360ed:	3e 70 5f             	jo,pt  3614f <C.3.1262+0x4cf>
   360f0:	66                   	data16
   360f1:	6c                   	insb   (%dx),%es:(%edi)
   360f2:	61                   	popa   
   360f3:	67 73 20             	addr16 jae 36116 <C.3.1262+0x496>
   360f6:	3d 3d 20 30 00       	cmp    $0x30203d,%eax
   360fb:	70 5f                	jo     3615c <C.3.1262+0x4dc>
   360fd:	77 68                	ja     36167 <C.3.1262+0x4e7>
   360ff:	6f                   	outsl  %ds:(%esi),(%dx)
   36100:	5f                   	pop    %edi
   36101:	77 61                	ja     36164 <C.3.1262+0x4e4>
   36103:	6e                   	outsb  %ds:(%esi),(%dx)
   36104:	6e                   	outsb  %ds:(%esi),(%dx)
   36105:	61                   	popa   
   36106:	5f                   	pop    %edi
   36107:	72 65                	jb     3616e <C.3.1262+0x4ee>
   36109:	63 76 2d             	arpl   %si,0x2d(%esi)
   3610c:	3e 70 5f             	jo,pt  3616e <C.3.1262+0x4ee>
   3610f:	6d                   	insl   (%dx),%es:(%edi)
   36110:	73 67                	jae    36179 <C.3.1262+0x4f9>
   36112:	20 3d 3d 20 30 00    	and    %bh,0x30203d
   36118:	70 5f                	jo     36179 <C.3.1262+0x4f9>
   3611a:	77 68                	ja     36184 <C.3.1262+0x504>
   3611c:	6f                   	outsl  %ds:(%esi),(%dx)
   3611d:	5f                   	pop    %edi
   3611e:	77 61                	ja     36181 <C.3.1262+0x501>
   36120:	6e                   	outsb  %ds:(%esi),(%dx)
   36121:	6e                   	outsb  %ds:(%esi),(%dx)
   36122:	61                   	popa   
   36123:	5f                   	pop    %edi
   36124:	72 65                	jb     3618b <C.3.1262+0x50b>
   36126:	63 76 2d             	arpl   %si,0x2d(%esi)
   36129:	3e 70 5f             	jo,pt  3618b <C.3.1262+0x50b>
   3612c:	73 65                	jae    36193 <C.3.1262+0x513>
   3612e:	6e                   	outsb  %ds:(%esi),(%dx)
   3612f:	64                   	fs
   36130:	74 6f                	je     361a1 <C.3.1262+0x521>
   36132:	20 3d 3d 20 4e 4f    	and    %bh,0x4f4e203d
   36138:	5f                   	pop    %edi
   36139:	54                   	push   %esp
   3613a:	41                   	inc    %ecx
   3613b:	53                   	push   %ebx
   3613c:	4b                   	dec    %ebx
   3613d:	00 00                	add    %al,(%eax)
   3613f:	00 70 5f             	add    %dh,0x5f(%eax)
   36142:	77 68                	ja     361ac <C.3.1262+0x52c>
   36144:	6f                   	outsl  %ds:(%esi),(%dx)
   36145:	5f                   	pop    %edi
   36146:	77 61                	ja     361a9 <C.3.1262+0x529>
   36148:	6e                   	outsb  %ds:(%esi),(%dx)
   36149:	6e                   	outsb  %ds:(%esi),(%dx)
   3614a:	61                   	popa   
   3614b:	5f                   	pop    %edi
   3614c:	72 65                	jb     361b3 <C.3.1262+0x533>
   3614e:	63 76 2d             	arpl   %si,0x2d(%esi)
   36151:	3e                   	ds
   36152:	68 61 73 5f 69       	push   $0x695f7361
   36157:	6e                   	outsb  %ds:(%esi),(%dx)
   36158:	74 5f                	je     361b9 <C.3.1262+0x539>
   3615a:	6d                   	insl   (%dx),%es:(%edi)
   3615b:	73 67                	jae    361c4 <C.3.1262+0x544>
   3615d:	20 3d 3d 20 30 00    	and    %bh,0x30203d
   36163:	00 70 5f             	add    %dh,0x5f(%eax)
   36166:	77 68                	ja     361d0 <C.3.1262+0x550>
   36168:	6f                   	outsl  %ds:(%esi),(%dx)
   36169:	5f                   	pop    %edi
   3616a:	77 61                	ja     361cd <C.3.1262+0x54d>
   3616c:	6e                   	outsb  %ds:(%esi),(%dx)
   3616d:	6e                   	outsb  %ds:(%esi),(%dx)
   3616e:	61                   	popa   
   3616f:	5f                   	pop    %edi
   36170:	72 65                	jb     361d7 <C.3.1262+0x557>
   36172:	63 76 2d             	arpl   %si,0x2d(%esi)
   36175:	3e 70 5f             	jo,pt  361d7 <C.3.1262+0x557>
   36178:	72 65                	jb     361df <C.3.1262+0x55f>
   3617a:	63 76 66             	arpl   %si,0x66(%esi)
   3617d:	72 6f                	jb     361ee <C.3.1262+0x56e>
   3617f:	6d                   	insl   (%dx),%es:(%edi)
   36180:	20 3d 3d 20 4e 4f    	and    %bh,0x4f4e203d
   36186:	5f                   	pop    %edi
   36187:	54                   	push   %esp
   36188:	41                   	inc    %ecx
   36189:	53                   	push   %ebx
   3618a:	4b                   	dec    %ebx
   3618b:	00 70 5f             	add    %dh,0x5f(%eax)
   3618e:	77 68                	ja     361f8 <C.3.1262+0x578>
   36190:	6f                   	outsl  %ds:(%esi),(%dx)
   36191:	5f                   	pop    %edi
   36192:	77 61                	ja     361f5 <C.3.1262+0x575>
   36194:	6e                   	outsb  %ds:(%esi),(%dx)
   36195:	6e                   	outsb  %ds:(%esi),(%dx)
   36196:	61                   	popa   
   36197:	5f                   	pop    %edi
   36198:	72 65                	jb     361ff <C.3.1262+0x57f>
   3619a:	63 76 2d             	arpl   %si,0x2d(%esi)
   3619d:	3e 71 5f             	jno,pt 361ff <C.3.1262+0x57f>
   361a0:	73 65                	jae    36207 <C.3.1262+0x587>
   361a2:	6e                   	outsb  %ds:(%esi),(%dx)
   361a3:	64 69 6e 67 20 21 3d 	imul   $0x203d2120,%fs:0x67(%esi),%ebp
   361aa:	20 
   361ab:	30 00                	xor    %al,(%eax)
   361ad:	70 5f                	jo     3620e <C.3.1262+0x58e>
   361af:	66                   	data16
   361b0:	72 6f                	jb     36221 <C.3.1262+0x5a1>
   361b2:	6d                   	insl   (%dx),%es:(%edi)
   361b3:	2d 3e 70 5f 66       	sub    $0x665f703e,%eax
   361b8:	6c                   	insb   (%dx),%es:(%edi)
   361b9:	61                   	popa   
   361ba:	67 73 20             	addr16 jae 361dd <C.3.1262+0x55d>
   361bd:	3d 3d 20 53 45       	cmp    $0x4553203d,%eax
   361c2:	4e                   	dec    %esi
   361c3:	44                   	inc    %esp
   361c4:	49                   	dec    %ecx
   361c5:	4e                   	dec    %esi
   361c6:	47                   	inc    %edi
   361c7:	00 70 5f             	add    %dh,0x5f(%eax)
   361ca:	66                   	data16
   361cb:	72 6f                	jb     3623c <C.3.1262+0x5bc>
   361cd:	6d                   	insl   (%dx),%es:(%edi)
   361ce:	2d 3e 70 5f 6d       	sub    $0x6d5f703e,%eax
   361d3:	73 67                	jae    3623c <C.3.1262+0x5bc>
   361d5:	20 21                	and    %ah,(%ecx)
   361d7:	3d 20 30 00 70       	cmp    $0x70003020,%eax
   361dc:	5f                   	pop    %edi
   361dd:	66                   	data16
   361de:	72 6f                	jb     3624f <C.3.1262+0x5cf>
   361e0:	6d                   	insl   (%dx),%es:(%edi)
   361e1:	2d 3e 70 5f 72       	sub    $0x725f703e,%eax
   361e6:	65 63 76 66          	arpl   %si,%gs:0x66(%esi)
   361ea:	72 6f                	jb     3625b <C.3.1262+0x5db>
   361ec:	6d                   	insl   (%dx),%es:(%edi)
   361ed:	20 3d 3d 20 4e 4f    	and    %bh,0x4f4e203d
   361f3:	5f                   	pop    %edi
   361f4:	54                   	push   %esp
   361f5:	41                   	inc    %ecx
   361f6:	53                   	push   %ebx
   361f7:	4b                   	dec    %ebx
   361f8:	00 00                	add    %al,(%eax)
   361fa:	00 00                	add    %al,(%eax)
   361fc:	70 5f                	jo     3625d <C.3.1262+0x5dd>
   361fe:	66                   	data16
   361ff:	72 6f                	jb     36270 <C.3.1262+0x5f0>
   36201:	6d                   	insl   (%dx),%es:(%edi)
   36202:	2d 3e 70 5f 73       	sub    $0x735f703e,%eax
   36207:	65 6e                	outsb  %gs:(%esi),(%dx)
   36209:	64                   	fs
   3620a:	74 6f                	je     3627b <C.3.1262+0x5fb>
   3620c:	20 3d 3d 20 70 72    	and    %bh,0x7270203d
   36212:	6f                   	outsl  %ds:(%esi),(%dx)
   36213:	63 32                	arpl   %si,(%edx)
   36215:	70 69                	jo     36280 <C.3.1262+0x600>
   36217:	64 28 70 5f          	sub    %dh,%fs:0x5f(%eax)
   3621b:	77 68                	ja     36285 <C.3.1262+0x605>
   3621d:	6f                   	outsl  %ds:(%esi),(%dx)
   3621e:	5f                   	pop    %edi
   3621f:	77 61                	ja     36282 <C.3.1262+0x602>
   36221:	6e                   	outsb  %ds:(%esi),(%dx)
   36222:	6e                   	outsb  %ds:(%esi),(%dx)
   36223:	61                   	popa   
   36224:	5f                   	pop    %edi
   36225:	72 65                	jb     3628c <C.3.1262+0x60c>
   36227:	63 76 29             	arpl   %si,0x29(%esi)
   3622a:	00 70 00             	add    %dh,0x0(%eax)
   3622d:	70 5f                	jo     3628e <C.3.1262+0x60e>
   3622f:	66                   	data16
   36230:	72 6f                	jb     362a1 <C.3.1262+0x621>
   36232:	6d                   	insl   (%dx),%es:(%edi)
   36233:	2d 3e 70 5f 66       	sub    $0x665f703e,%eax
   36238:	6c                   	insb   (%dx),%es:(%edi)
   36239:	61                   	popa   
   3623a:	67 73 20             	addr16 jae 3625d <C.3.1262+0x5dd>
   3623d:	26 20 53 45          	and    %dl,%es:0x45(%ebx)
   36241:	4e                   	dec    %esi
   36242:	44                   	inc    %esp
   36243:	49                   	dec    %ecx
   36244:	4e                   	dec    %esi
   36245:	47                   	inc    %edi
   36246:	00 70 72             	add    %dh,0x72(%eax)
   36249:	65                   	gs
   3624a:	76 20                	jbe    3626c <C.3.1262+0x5ec>
   3624c:	3d 3d 20 30 00       	cmp    $0x30203d,%eax
   36251:	70 72                	jo     362c5 <C.3.1262+0x645>
   36253:	65                   	gs
   36254:	76 00                	jbe    36256 <C.3.1262+0x5d6>
   36256:	70 5f                	jo     362b7 <C.3.1262+0x637>
   36258:	66                   	data16
   36259:	72 6f                	jb     362ca <C.3.1262+0x64a>
   3625b:	6d                   	insl   (%dx),%es:(%edi)
   3625c:	2d 3e 70 5f 6d       	sub    $0x6d5f703e,%eax
   36261:	73 67                	jae    362ca <C.3.1262+0x64a>
   36263:	00 70 5f             	add    %dh,0x5f(%eax)
   36266:	77 68                	ja     362d0 <C.3.1262+0x650>
   36268:	6f                   	outsl  %ds:(%esi),(%dx)
   36269:	5f                   	pop    %edi
   3626a:	77 61                	ja     362cd <C.3.1262+0x64d>
   3626c:	6e                   	outsb  %ds:(%esi),(%dx)
   3626d:	6e                   	outsb  %ds:(%esi),(%dx)
   3626e:	61                   	popa   
   3626f:	5f                   	pop    %edi
   36270:	72 65                	jb     362d7 <C.3.1262+0x657>
   36272:	63 76 2d             	arpl   %si,0x2d(%esi)
   36275:	3e 70 5f             	jo,pt  362d7 <C.3.1262+0x657>
   36278:	66                   	data16
   36279:	6c                   	insb   (%dx),%es:(%edi)
   3627a:	61                   	popa   
   3627b:	67 73 20             	addr16 jae 3629e <C.3.1262+0x61e>
   3627e:	3d 3d 20 52 45       	cmp    $0x4552203d,%eax
   36283:	43                   	inc    %ebx
   36284:	45                   	inc    %ebp
   36285:	49                   	dec    %ecx
   36286:	56                   	push   %esi
   36287:	49                   	dec    %ecx
   36288:	4e                   	dec    %esi
   36289:	47                   	inc    %edi
   3628a:	00 70 5f             	add    %dh,0x5f(%eax)
   3628d:	77 68                	ja     362f7 <C.3.1262+0x677>
   3628f:	6f                   	outsl  %ds:(%esi),(%dx)
   36290:	5f                   	pop    %edi
   36291:	77 61                	ja     362f4 <C.3.1262+0x674>
   36293:	6e                   	outsb  %ds:(%esi),(%dx)
   36294:	6e                   	outsb  %ds:(%esi),(%dx)
   36295:	61                   	popa   
   36296:	5f                   	pop    %edi
   36297:	72 65                	jb     362fe <C.3.1262+0x67e>
   36299:	63 76 2d             	arpl   %si,0x2d(%esi)
   3629c:	3e 70 5f             	jo,pt  362fe <C.3.1262+0x67e>
   3629f:	6d                   	insl   (%dx),%es:(%edi)
   362a0:	73 67                	jae    36309 <C.3.1262+0x689>
   362a2:	20 21                	and    %ah,(%ecx)
   362a4:	3d 20 30 00 70       	cmp    $0x70003020,%eax
   362a9:	5f                   	pop    %edi
   362aa:	77 68                	ja     36314 <C.3.1262+0x694>
   362ac:	6f                   	outsl  %ds:(%esi),(%dx)
   362ad:	5f                   	pop    %edi
   362ae:	77 61                	ja     36311 <C.3.1262+0x691>
   362b0:	6e                   	outsb  %ds:(%esi),(%dx)
   362b1:	6e                   	outsb  %ds:(%esi),(%dx)
   362b2:	61                   	popa   
   362b3:	5f                   	pop    %edi
   362b4:	72 65                	jb     3631b <C.3.1262+0x69b>
   362b6:	63 76 2d             	arpl   %si,0x2d(%esi)
   362b9:	3e 70 5f             	jo,pt  3631b <C.3.1262+0x69b>
   362bc:	72 65                	jb     36323 <C.3.1262+0x6a3>
   362be:	63 76 66             	arpl   %si,0x66(%esi)
   362c1:	72 6f                	jb     36332 <C.3.1262+0x6b2>
   362c3:	6d                   	insl   (%dx),%es:(%edi)
   362c4:	20 21                	and    %ah,(%ecx)
   362c6:	3d 20 4e 4f 5f       	cmp    $0x5f4f4e20,%eax
   362cb:	54                   	push   %esp
   362cc:	41                   	inc    %ecx
   362cd:	53                   	push   %ebx
   362ce:	4b                   	dec    %ebx
   362cf:	00 70 2d             	add    %dh,0x2d(%eax)
   362d2:	3e 70 5f             	jo,pt  36334 <C.3.1262+0x6b4>
   362d5:	6d                   	insl   (%dx),%es:(%edi)
   362d6:	73 67                	jae    3633f <C.3.1262+0x6bf>
   362d8:	20 3d 3d 20 30 00    	and    %bh,0x30203d
   362de:	70 2d                	jo     3630d <C.3.1262+0x68d>
   362e0:	3e 70 5f             	jo,pt  36342 <C.3.1262+0x6c2>
   362e3:	72 65                	jb     3634a <C.3.1262+0x6ca>
   362e5:	63 76 66             	arpl   %si,0x66(%esi)
   362e8:	72 6f                	jb     36359 <C.3.1262+0x6d9>
   362ea:	6d                   	insl   (%dx),%es:(%edi)
   362eb:	20 3d 3d 20 4e 4f    	and    %bh,0x4f4e203d
   362f1:	5f                   	pop    %edi
   362f2:	54                   	push   %esp
   362f3:	41                   	inc    %ecx
   362f4:	53                   	push   %ebx
   362f5:	4b                   	dec    %ebx
   362f6:	00 70 2d             	add    %dh,0x2d(%eax)
   362f9:	3e 70 5f             	jo,pt  3635b <C.3.1262+0x6db>
   362fc:	73 65                	jae    36363 <C.3.1262+0x6e3>
   362fe:	6e                   	outsb  %ds:(%esi),(%dx)
   362ff:	64                   	fs
   36300:	74 6f                	je     36371 <C.3.1262+0x6f1>
   36302:	20 3d 3d 20 4e 4f    	and    %bh,0x4f4e203d
   36308:	5f                   	pop    %edi
   36309:	54                   	push   %esp
   3630a:	41                   	inc    %ecx
   3630b:	53                   	push   %ebx
   3630c:	4b                   	dec    %ebx
   3630d:	00 00                	add    %al,(%eax)
   3630f:	0a 00                	or     (%eax),%al
   36311:	20 00                	and    %al,(%eax)
   36313:	0a 20                	or     (%eax),%ah
   36315:	20 20                	and    %ah,(%eax)
   36317:	20 20                	and    %ah,(%eax)
   36319:	20 20                	and    %ah,(%eax)
   3631b:	20 00                	and    %al,(%eax)
   3631d:	00 00                	add    %al,(%eax)
   3631f:	00 7b 25             	add    %bh,0x25(%ebx)
   36322:	73 7d                	jae    363a1 <C.3.1262+0x721>
   36324:	3c 30                	cmp    $0x30,%al
   36326:	78 25                	js     3634d <C.3.1262+0x6cd>
   36328:	78 3e                	js     36368 <C.3.1262+0x6e8>
   3632a:	7b 25                	jnp    36351 <C.3.1262+0x6d1>
   3632c:	73 73                	jae    363a1 <C.3.1262+0x721>
   3632e:	72 63                	jb     36393 <C.3.1262+0x713>
   36330:	3a 25 73 28 25 64    	cmp    0x64252873,%ah
   36336:	29 2c 25 73 74 79 70 	sub    %ebp,0x70797473(,%eiz,1)
   3633d:	65 3a 25 64 2c 25 73 	cmp    %gs:0x73252c64,%ah
   36344:	28 30                	sub    %dh,(%eax)
   36346:	78 25                	js     3636d <C.3.1262+0x6ed>
   36348:	78 2c                	js     36376 <C.3.1262+0x6f6>
   3634a:	20 30                	and    %dh,(%eax)
   3634c:	78 25                	js     36373 <C.3.1262+0x6f3>
   3634e:	78 2c                	js     3637c <C.3.1262+0x6fc>
   36350:	20 30                	and    %dh,(%eax)
   36352:	78 25                	js     36379 <C.3.1262+0x6f9>
   36354:	78 2c                	js     36382 <C.3.1262+0x702>
   36356:	20 30                	and    %dh,(%eax)
   36358:	78 25                	js     3637f <C.3.1262+0x6ff>
   3635a:	78 2c                	js     36388 <C.3.1262+0x708>
   3635c:	20 30                	and    %dh,(%eax)
   3635e:	78 25                	js     36385 <C.3.1262+0x705>
   36360:	78 2c                	js     3638e <C.3.1262+0x70e>
   36362:	20 30                	and    %dh,(%eax)
   36364:	78 25                	js     3638b <C.3.1262+0x70b>
   36366:	78 29                	js     36391 <C.3.1262+0x711>
   36368:	25 73 7d 25 73       	and    $0x73257d73,%eax
   3636d:	00 00                	add    %al,(%eax)
   3636f:	00 8d 41 03 00 a5    	add    %cl,-0x5afffcbf(%ebp)
   36375:	41                   	inc    %ecx
   36376:	03 00                	add    (%eax),%eax
   36378:	51                   	push   %ecx
   36379:	42                   	inc    %edx
   3637a:	03 00                	add    (%eax),%eax
   3637c:	51                   	push   %ecx
   3637d:	42                   	inc    %edx
   3637e:	03 00                	add    (%eax),%eax
   36380:	51                   	push   %ecx
   36381:	42                   	inc    %edx
   36382:	03 00                	add    (%eax),%eax
   36384:	51                   	push   %ecx
   36385:	42                   	inc    %edx
   36386:	03 00                	add    (%eax),%eax
   36388:	51                   	push   %ecx
   36389:	42                   	inc    %edx
   3638a:	03 00                	add    (%eax),%eax
   3638c:	51                   	push   %ecx
   3638d:	42                   	inc    %edx
   3638e:	03 00                	add    (%eax),%eax
   36390:	51                   	push   %ecx
   36391:	42                   	inc    %edx
   36392:	03 00                	add    (%eax),%eax
   36394:	51                   	push   %ecx
   36395:	42                   	inc    %edx
   36396:	03 00                	add    (%eax),%eax
   36398:	51                   	push   %ecx
   36399:	42                   	inc    %edx
   3639a:	03 00                	add    (%eax),%eax
   3639c:	51                   	push   %ecx
   3639d:	42                   	inc    %edx
   3639e:	03 00                	add    (%eax),%eax
   363a0:	51                   	push   %ecx
   363a1:	42                   	inc    %edx
   363a2:	03 00                	add    (%eax),%eax
   363a4:	51                   	push   %ecx
   363a5:	42                   	inc    %edx
   363a6:	03 00                	add    (%eax),%eax
   363a8:	23 42 03             	and    0x3(%edx),%eax
   363ab:	00 23                	add    %ah,(%ebx)
   363ad:	42                   	inc    %edx
   363ae:	03 00                	add    (%eax),%eax
   363b0:	23 42 03             	and    0x3(%edx),%eax
   363b3:	00 23                	add    %ah,(%ebx)
   363b5:	42                   	inc    %edx
   363b6:	03 00                	add    (%eax),%eax
   363b8:	23 42 03             	and    0x3(%edx),%eax
   363bb:	00 23                	add    %ah,(%ebx)
   363bd:	42                   	inc    %edx
   363be:	03 00                	add    (%eax),%eax
   363c0:	23 42 03             	and    0x3(%edx),%eax
   363c3:	00 23                	add    %ah,(%ebx)
   363c5:	42                   	inc    %edx
   363c6:	03 00                	add    (%eax),%eax
   363c8:	23 42 03             	and    0x3(%edx),%eax
   363cb:	00 23                	add    %ah,(%ebx)
   363cd:	42                   	inc    %edx
   363ce:	03 00                	add    (%eax),%eax
   363d0:	23 42 03             	and    0x3(%edx),%eax
   363d3:	00 23                	add    %ah,(%ebx)
   363d5:	42                   	inc    %edx
   363d6:	03 00                	add    (%eax),%eax
   363d8:	51                   	push   %ecx
   363d9:	42                   	inc    %edx
   363da:	03 00                	add    (%eax),%eax
   363dc:	51                   	push   %ecx
   363dd:	42                   	inc    %edx
   363de:	03 00                	add    (%eax),%eax
   363e0:	51                   	push   %ecx
   363e1:	42                   	inc    %edx
   363e2:	03 00                	add    (%eax),%eax
   363e4:	51                   	push   %ecx
   363e5:	42                   	inc    %edx
   363e6:	03 00                	add    (%eax),%eax
   363e8:	51                   	push   %ecx
   363e9:	42                   	inc    %edx
   363ea:	03 00                	add    (%eax),%eax
   363ec:	51                   	push   %ecx
   363ed:	42                   	inc    %edx
   363ee:	03 00                	add    (%eax),%eax
   363f0:	51                   	push   %ecx
   363f1:	42                   	inc    %edx
   363f2:	03 00                	add    (%eax),%eax
   363f4:	51                   	push   %ecx
   363f5:	42                   	inc    %edx
   363f6:	03 00                	add    (%eax),%eax
   363f8:	bd 41 03 00 f0       	mov    $0xf0000341,%ebp
   363fd:	41                   	inc    %ecx
   363fe:	03 00                	add    (%eax),%eax
   36400:	73 79                	jae    3647b <C.3.1262+0x7fb>
   36402:	73 20                	jae    36424 <C.3.1262+0x7a4>
   36404:	72 65                	jb     3646b <C.3.1262+0x7eb>
   36406:	63 65 69             	arpl   %sp,0x69(%ebp)
   36409:	76 65                	jbe    36470 <C.3.1262+0x7f0>
   3640b:	20 66 72             	and    %ah,0x72(%esi)
   3640e:	6f                   	outsl  %ds:(%esi),(%dx)
   3640f:	6d                   	insl   (%dx),%es:(%edi)
   36410:	20 25 64 20 74 69    	and    %ah,0x69742064
   36416:	63 6b 73             	arpl   %bp,0x73(%ebx)
   36419:	3a 20                	cmp    (%eax),%ah
   3641b:	25 64 00 68 61       	and    $0x61680064,%eax
   36420:	72 64                	jb     36486 <C.3.1262+0x806>
   36422:	69 6e 74 20 6d 73 67 	imul   $0x67736d20,0x74(%esi),%ebp
   36429:	20 74 79 70          	and    %dh,0x70(%ecx,%edi,2)
   3642d:	65 20 66 72          	and    %ah,%gs:0x72(%esi)
   36431:	6f                   	outsl  %ds:(%esi),(%dx)
   36432:	6d                   	insl   (%dx),%es:(%edi)
   36433:	20 25 64 00 75 6e    	and    %ah,0x6e750064
   36439:	6b 6e 6f 77          	imul   $0x77,0x6f(%esi),%ebp
   3643d:	6e                   	outsb  %ds:(%esi),(%dx)
   3643e:	20 6d 73             	and    %ch,0x73(%ebp)
   36441:	67 20 74 79          	addr16 and %dh,0x79(%si)
   36445:	70 65                	jo     364ac <C.3.1262+0x82c>
   36447:	20 66 72             	and    %ah,0x72(%esi)
   3644a:	6f                   	outsl  %ds:(%esi),(%dx)
   3644b:	6d                   	insl   (%dx),%es:(%edi)
   3644c:	20 25 64 00 73 79    	and    %ah,0x79730064
   36452:	73 20                	jae    36474 <C.3.1262+0x7f4>
   36454:	73 65                	jae    364bb <C.3.1262+0x83b>
   36456:	6e                   	outsb  %ds:(%esi),(%dx)
   36457:	64 20 74 6f 20       	and    %dh,%fs:0x20(%edi,%ebp,2)
   3645c:	25 64 20 74 69       	and    $0x69742064,%eax
   36461:	63 6b 73             	arpl   %bp,0x73(%ebx)
   36464:	3a 20                	cmp    (%eax),%ah
   36466:	25 64 00 00 00       	and    $0x64,%eax
   3646b:	00 0a                	add    %cl,(%edx)
   3646d:	73 70                	jae    364df <C.3.1262+0x85f>
   3646f:	69 6e 6e 69 6e 67 20 	imul   $0x20676e69,0x6e(%esi),%ebp
   36476:	69 6e 20 25 73 20 2e 	imul   $0x2e207325,0x20(%esi),%ebp
   3647d:	2e 2e 0a 00          	or     %cs:(%eax),%al
   36481:	00 00                	add    %al,(%eax)
   36483:	00 20                	add    %ah,(%eax)
   36485:	20 61 73             	and    %ah,0x73(%ecx)
   36488:	73 65                	jae    364ef <C.3.1262+0x86f>
   3648a:	72 74                	jb     36500 <C.3.1262+0x880>
   3648c:	28 25 73 29 20 66    	sub    %ah,0x66202973
   36492:	61                   	popa   
   36493:	69 6c 65 64 3a 20 66 	imul   $0x6966203a,0x64(%ebp,%eiz,2),%ebp
   3649a:	69 
   3649b:	6c                   	insb   (%dx),%es:(%edi)
   3649c:	65 3a 20             	cmp    %gs:(%eax),%ah
   3649f:	25 73 2c 20 62       	and    $0x62202c73,%eax
   364a4:	61                   	popa   
   364a5:	73 65                	jae    3650c <C.3.1262+0x88c>
   364a7:	5f                   	pop    %edi
   364a8:	66 69 6c 65 3a 20 25 	imul   $0x2520,0x3a(%ebp,%eiz,2),%bp
   364af:	73 2c                	jae    364dd <C.3.1262+0x85d>
   364b1:	20 6c 6e 25          	and    %ch,0x25(%esi,%ebp,2)
   364b5:	64 20 70 72          	and    %dh,%fs:0x72(%eax)
   364b9:	6f                   	outsl  %ds:(%esi),(%dx)
   364ba:	63 3a                	arpl   %di,(%edx)
   364bc:	20 25 73 00 48 44    	and    %ah,0x44480073
   364c2:	20 64 72 69          	and    %ah,0x69(%edx,%esi,2)
   364c6:	76 65                	jbe    3652d <C.3.1262+0x8ad>
   364c8:	72 3a                	jb     36504 <C.3.1262+0x884>
   364ca:	3a 75 6e             	cmp    0x6e(%ebp),%dh
   364cd:	6b 6e 6f 77          	imul   $0x77,0x6f(%esi),%ebp
   364d1:	6e                   	outsb  %ds:(%esi),(%dx)
   364d2:	20 6d 73             	and    %ch,0x73(%ebp)
   364d5:	67 00 00             	addr16 add %al,(%bx,%si)
   364d8:	46                   	inc    %esi
   364d9:	53                   	push   %ebx
   364da:	3a 3a                	cmp    (%edx),%bh
   364dc:	6d                   	insl   (%dx),%es:(%edi)
   364dd:	61                   	popa   
   364de:	69 6e 5f 6c 6f 6f 70 	imul   $0x706f6f6c,0x5f(%esi),%ebp
   364e5:	20 28                	and    %ch,(%eax)
   364e7:	69 6e 76 61 6c 69 64 	imul   $0x64696c61,0x76(%esi),%ebp
   364ee:	20 6d 73             	and    %ch,0x73(%ebp)
   364f1:	67 2e 74 79          	addr16 je,pn 3656e <C.3.1262+0x8ee>
   364f5:	70 65                	jo     3655c <C.3.1262+0x8dc>
   364f7:	29 00                	sub    %eax,(%eax)
   364f9:	4e                   	dec    %esi
   364fa:	72 44                	jb     36540 <C.3.1262+0x8c0>
   364fc:	72 69                	jb     36567 <C.3.1262+0x8e7>
   364fe:	76 65                	jbe    36565 <C.3.1262+0x8e5>
   36500:	73 3a                	jae    3653c <C.3.1262+0x8bc>
   36502:	25 64 2e 0a 00       	and    $0xa2e64,%eax
   36507:	6b 65 72 6e          	imul   $0x6e,0x72(%ebp),%esp
   3650b:	65                   	gs
   3650c:	6c                   	insb   (%dx),%es:(%edi)
   3650d:	2f                   	das    
   3650e:	68 64 2e 63 00       	push   $0x632e64
   36513:	2a 70 4e             	sub    0x4e(%eax),%dh
   36516:	72 44                	jb     3655c <C.3.1262+0x8dc>
   36518:	72 69                	jb     36583 <C.3.1262+0x903>
   3651a:	76 65                	jbe    36581 <C.3.1262+0x901>
   3651c:	73 00                	jae    3651e <C.3.1262+0x89e>
   3651e:	64                   	fs
   3651f:	72 69                	jb     3658a <C.3.1262+0x90a>
   36521:	76 65                	jbe    36588 <C.3.1262+0x908>
   36523:	20 3d 3d 20 30 00    	and    %bh,0x30203d
   36529:	6e                   	outsb  %ds:(%esi),(%dx)
   3652a:	72 5f                	jb     3658b <C.3.1262+0x90b>
   3652c:	70 72                	jo     365a0 <C.3.1262+0x920>
   3652e:	69 6d 5f 70 61 72 74 	imul   $0x74726170,0x5f(%ebp),%ebp
   36535:	73 20                	jae    36557 <C.3.1262+0x8d7>
   36537:	21 3d 20 30 00 30    	and    %edi,0x30003020
   3653d:	00 20                	add    %ah,(%eax)
   3653f:	00 20                	add    %ah,(%eax)
   36541:	20 20                	and    %ah,(%eax)
   36543:	20 20                	and    %ah,(%eax)
   36545:	00 00                	add    %al,(%eax)
   36547:	00 25 73 50 41 52    	add    %ah,0x52415073
   3654d:	54                   	push   %esp
   3654e:	5f                   	pop    %edi
   3654f:	25 64 3a 20 62       	and    $0x62203a64,%eax
   36554:	61                   	popa   
   36555:	73 65                	jae    365bc <C.3.1262+0x93c>
   36557:	20 25 64 28 30 78    	and    %ah,0x78302864
   3655d:	25 78 29 2c 20       	and    $0x202c2978,%eax
   36562:	73 69                	jae    365cd <C.3.1262+0x94d>
   36564:	7a 65                	jp     365cb <C.3.1262+0x94b>
   36566:	20 25 64 28 30 78    	and    %ah,0x78302864
   3656c:	25 78 29 20 28       	and    $0x28202978,%eax
   36571:	69 6e 20 73 65 63 74 	imul   $0x74636573,0x20(%esi),%ebp
   36578:	6f                   	outsl  %ds:(%esi),(%dx)
   36579:	72 29                	jb     365a4 <C.3.1262+0x924>
   3657b:	0a 00                	or     (%eax),%al
   3657d:	00 00                	add    %al,(%eax)
   3657f:	00 20                	add    %ah,(%eax)
   36581:	20 20                	and    %ah,(%eax)
   36583:	20 20                	and    %ah,(%eax)
   36585:	20 20                	and    %ah,(%eax)
   36587:	20 20                	and    %ah,(%eax)
   36589:	25 64 3a 20 62       	and    $0x62203a64,%eax
   3658e:	61                   	popa   
   3658f:	73 65                	jae    365f6 <C.3.1262+0x976>
   36591:	20 25 64 28 30 78    	and    %ah,0x78302864
   36597:	25 78 29 2c 20       	and    $0x202c2978,%eax
   3659c:	73 69                	jae    36607 <C.3.1262+0x987>
   3659e:	7a 65                	jp     36605 <C.3.1262+0x985>
   365a0:	20 25 64 28 30 78    	and    %ah,0x78302864
   365a6:	25 78 29 20 28       	and    $0x28202978,%eax
   365ab:	69 6e 20 73 65 63 74 	imul   $0x74636573,0x20(%esi),%ebp
   365b2:	6f                   	outsl  %ds:(%esi),(%dx)
   365b3:	72 29                	jb     365de <C.3.1262+0x95e>
   365b5:	0a 00                	or     (%eax),%al
   365b7:	48                   	dec    %eax
   365b8:	44                   	inc    %esp
   365b9:	20 53 4e             	and    %dl,0x4e(%ebx)
   365bc:	00 46 69             	add    %al,0x69(%esi)
   365bf:	72 6d                	jb     3662e <C.3.1262+0x9ae>
   365c1:	77 61                	ja     36624 <C.3.1262+0x9a4>
   365c3:	72 65                	jb     3662a <C.3.1262+0x9aa>
   365c5:	20 76 65             	and    %dh,0x65(%esi)
   365c8:	72 73                	jb     3663d <C.3.1262+0x9bd>
   365ca:	69 6f 6e 00 48 44 20 	imul   $0x20444800,0x6e(%edi),%ebp
   365d1:	4d                   	dec    %ebp
   365d2:	6f                   	outsl  %ds:(%esi),(%dx)
   365d3:	64                   	fs
   365d4:	65                   	gs
   365d5:	6c                   	insb   (%dx),%es:(%edi)
   365d6:	00 25 73 3a 20 25    	add    %ah,0x25203a73
   365dc:	73 0a                	jae    365e8 <C.3.1262+0x968>
   365de:	00 59 65             	add    %bl,0x65(%ecx)
   365e1:	73 00                	jae    365e3 <C.3.1262+0x963>
   365e3:	4e                   	dec    %esi
   365e4:	6f                   	outsl  %ds:(%esi),(%dx)
   365e5:	00 4c 42 41          	add    %cl,0x41(%edx,%eax,2)
   365e9:	20 73 75             	and    %dh,0x75(%ebx)
   365ec:	70 70                	jo     3665e <C.3.1262+0x9de>
   365ee:	6f                   	outsl  %ds:(%esi),(%dx)
   365ef:	72 74                	jb     36665 <C.3.1262+0x9e5>
   365f1:	65 64 3a 20          	cmp    %fs:%gs:(%eax),%ah
   365f5:	25 73 0a 00 44       	and    $0x44000a73,%eax
   365fa:	4d                   	dec    %ebp
   365fb:	41                   	inc    %ecx
   365fc:	20 73 75             	and    %dh,0x75(%ebx)
   365ff:	70 70                	jo     36671 <C.3.1262+0x9f1>
   36601:	6f                   	outsl  %ds:(%esi),(%dx)
   36602:	72 74                	jb     36678 <C.3.1262+0x9f8>
   36604:	65 64 3a 20          	cmp    %fs:%gs:(%eax),%ah
   36608:	25 73 0a 00 4c       	and    $0x4c000a73,%eax
   3660d:	42                   	inc    %edx
   3660e:	41                   	inc    %ecx
   3660f:	34 38                	xor    $0x38,%al
   36611:	20 73 75             	and    %dh,0x75(%ebx)
   36614:	70 70                	jo     36686 <C.3.1262+0xa06>
   36616:	6f                   	outsl  %ds:(%esi),(%dx)
   36617:	72 74                	jb     3668d <C.3.1262+0xa0d>
   36619:	65 64 3a 20          	cmp    %fs:%gs:(%eax),%ah
   3661d:	25 73 0a 00 48       	and    $0x48000a73,%eax
   36622:	44                   	inc    %esp
   36623:	20 73 69             	and    %dh,0x69(%ebx)
   36626:	7a 65                	jp     3668d <C.3.1262+0xa0d>
   36628:	3a 20                	cmp    (%eax),%ah
   3662a:	25 64 4d 42 0a       	and    $0xa424d64,%eax
   3662f:	00 68 64             	add    %ch,0x64(%eax)
   36632:	20 65 72             	and    %ah,0x72(%ebp)
   36635:	72 6f                	jb     366a6 <C.3.1262+0xa26>
   36637:	72 2e                	jb     36667 <C.3.1262+0x9e7>
	...

Disassembly of section .data:

00037000 <clock_int_msg>:
   37000:	5e                   	pop    %esi
	...

00037020 <task_table>:
   37020:	63 21                	arpl   %sp,(%ecx)
   37022:	03 00                	add    (%eax),%eax
   37024:	00 40 00             	add    %al,0x0(%eax)
   37027:	00 63 6c             	add    %ah,0x6c(%ebx)
   3702a:	6f                   	outsl  %ds:(%esi),(%dx)
   3702b:	63 6b 00             	arpl   %bp,0x0(%ebx)
	...
   37046:	00 00                	add    %al,(%eax)
   37048:	38 40 03             	cmp    %al,0x3(%eax)
   3704b:	00 00                	add    %al,(%eax)
   3704d:	40                   	inc    %eax
   3704e:	00 00                	add    %al,(%eax)
   37050:	74 74                	je     370c6 <task_table+0xa6>
   37052:	79 00                	jns    37054 <task_table+0x34>
	...
   37070:	00 4d 03             	add    %cl,0x3(%ebp)
   37073:	00 00                	add    %al,(%eax)
   37075:	40                   	inc    %eax
   37076:	00 00                	add    %al,(%eax)
   37078:	53                   	push   %ebx
   37079:	59                   	pop    %ecx
   3707a:	53                   	push   %ebx
	...
   37097:	00 e0                	add    %ah,%al
   37099:	08 03                	or     %al,(%ebx)
   3709b:	00 00                	add    %al,(%eax)
   3709d:	80 00 00             	addb   $0x0,(%eax)
   370a0:	49                   	dec    %ecx
   370a1:	44                   	inc    %esp
   370a2:	4c                   	dec    %esp
   370a3:	45                   	inc    %ebp
	...
   370c0:	a4                   	movsb  %ds:(%esi),%es:(%edi)
   370c1:	4e                   	dec    %esi
   370c2:	03 00                	add    (%eax),%eax
   370c4:	00 80 00 00 48 44    	add    %al,0x44480000(%eax)
	...
   370e6:	00 00                	add    %al,(%eax)
   370e8:	88 59 03             	mov    %bl,0x3(%ecx)
   370eb:	00 00                	add    %al,(%eax)
   370ed:	80 00 00             	addb   $0x0,(%eax)
   370f0:	46                   	inc    %esi
   370f1:	53                   	push   %ebx
	...

00037120 <user_proc_table>:
   37120:	0b 20                	or     (%eax),%esp
   37122:	03 00                	add    (%eax),%eax
   37124:	00 40 00             	add    %al,0x0(%eax)
   37127:	00 54 45 53          	add    %dl,0x53(%ebp,%eax,2)
   3712b:	54                   	push   %esp
   3712c:	41                   	inc    %ecx
	...
   37145:	00 00                	add    %al,(%eax)
   37147:	00 40 20             	add    %al,0x20(%eax)
   3714a:	03 00                	add    (%eax),%eax
   3714c:	00 40 00             	add    %al,0x0(%eax)
   3714f:	00 54 45 53          	add    %dl,0x53(%ebp,%eax,2)
   37153:	54                   	push   %esp
   37154:	42                   	inc    %edx
	...

00037170 <sys_call_table>:
   37170:	b4 43                	mov    $0x43,%ah
   37172:	03 00                	add    (%eax),%eax
   37174:	1b 25 03 00 00 00    	sbb    0x3,%esp
   3717a:	00 00                	add    %al,(%eax)
   3717c:	00 00                	add    %al,(%eax)
	...

00037180 <keymap>:
	...
   3718c:	01 01                	add    %eax,(%ecx)
   3718e:	00 00                	add    %al,(%eax)
   37190:	01 01                	add    %eax,(%ecx)
   37192:	00 00                	add    %al,(%eax)
   37194:	00 00                	add    %al,(%eax)
   37196:	00 00                	add    %al,(%eax)
   37198:	31 00                	xor    %eax,(%eax)
   3719a:	00 00                	add    %al,(%eax)
   3719c:	21 00                	and    %eax,(%eax)
   3719e:	00 00                	add    %al,(%eax)
   371a0:	00 00                	add    %al,(%eax)
   371a2:	00 00                	add    %al,(%eax)
   371a4:	32 00                	xor    (%eax),%al
   371a6:	00 00                	add    %al,(%eax)
   371a8:	40                   	inc    %eax
   371a9:	00 00                	add    %al,(%eax)
   371ab:	00 00                	add    %al,(%eax)
   371ad:	00 00                	add    %al,(%eax)
   371af:	00 33                	add    %dh,(%ebx)
   371b1:	00 00                	add    %al,(%eax)
   371b3:	00 23                	add    %ah,(%ebx)
   371b5:	00 00                	add    %al,(%eax)
   371b7:	00 00                	add    %al,(%eax)
   371b9:	00 00                	add    %al,(%eax)
   371bb:	00 34 00             	add    %dh,(%eax,%eax,1)
   371be:	00 00                	add    %al,(%eax)
   371c0:	24 00                	and    $0x0,%al
   371c2:	00 00                	add    %al,(%eax)
   371c4:	00 00                	add    %al,(%eax)
   371c6:	00 00                	add    %al,(%eax)
   371c8:	35 00 00 00 25       	xor    $0x25000000,%eax
   371cd:	00 00                	add    %al,(%eax)
   371cf:	00 00                	add    %al,(%eax)
   371d1:	00 00                	add    %al,(%eax)
   371d3:	00 36                	add    %dh,(%esi)
   371d5:	00 00                	add    %al,(%eax)
   371d7:	00 5e 00             	add    %bl,0x0(%esi)
   371da:	00 00                	add    %al,(%eax)
   371dc:	00 00                	add    %al,(%eax)
   371de:	00 00                	add    %al,(%eax)
   371e0:	37                   	aaa    
   371e1:	00 00                	add    %al,(%eax)
   371e3:	00 26                	add    %ah,(%esi)
   371e5:	00 00                	add    %al,(%eax)
   371e7:	00 00                	add    %al,(%eax)
   371e9:	00 00                	add    %al,(%eax)
   371eb:	00 38                	add    %bh,(%eax)
   371ed:	00 00                	add    %al,(%eax)
   371ef:	00 2a                	add    %ch,(%edx)
   371f1:	00 00                	add    %al,(%eax)
   371f3:	00 00                	add    %al,(%eax)
   371f5:	00 00                	add    %al,(%eax)
   371f7:	00 39                	add    %bh,(%ecx)
   371f9:	00 00                	add    %al,(%eax)
   371fb:	00 28                	add    %ch,(%eax)
   371fd:	00 00                	add    %al,(%eax)
   371ff:	00 00                	add    %al,(%eax)
   37201:	00 00                	add    %al,(%eax)
   37203:	00 30                	add    %dh,(%eax)
   37205:	00 00                	add    %al,(%eax)
   37207:	00 29                	add    %ch,(%ecx)
   37209:	00 00                	add    %al,(%eax)
   3720b:	00 00                	add    %al,(%eax)
   3720d:	00 00                	add    %al,(%eax)
   3720f:	00 2d 00 00 00 5f    	add    %ch,0x5f000000
   37215:	00 00                	add    %al,(%eax)
   37217:	00 00                	add    %al,(%eax)
   37219:	00 00                	add    %al,(%eax)
   3721b:	00 3d 00 00 00 2b    	add    %bh,0x2b000000
   37221:	00 00                	add    %al,(%eax)
   37223:	00 00                	add    %al,(%eax)
   37225:	00 00                	add    %al,(%eax)
   37227:	00 04 01             	add    %al,(%ecx,%eax,1)
   3722a:	00 00                	add    %al,(%eax)
   3722c:	04 01                	add    $0x1,%al
   3722e:	00 00                	add    %al,(%eax)
   37230:	00 00                	add    %al,(%eax)
   37232:	00 00                	add    %al,(%eax)
   37234:	02 01                	add    (%ecx),%al
   37236:	00 00                	add    %al,(%eax)
   37238:	02 01                	add    (%ecx),%al
   3723a:	00 00                	add    %al,(%eax)
   3723c:	00 00                	add    %al,(%eax)
   3723e:	00 00                	add    %al,(%eax)
   37240:	71 00                	jno    37242 <keymap+0xc2>
   37242:	00 00                	add    %al,(%eax)
   37244:	51                   	push   %ecx
   37245:	00 00                	add    %al,(%eax)
   37247:	00 00                	add    %al,(%eax)
   37249:	00 00                	add    %al,(%eax)
   3724b:	00 77 00             	add    %dh,0x0(%edi)
   3724e:	00 00                	add    %al,(%eax)
   37250:	57                   	push   %edi
   37251:	00 00                	add    %al,(%eax)
   37253:	00 00                	add    %al,(%eax)
   37255:	00 00                	add    %al,(%eax)
   37257:	00 65 00             	add    %ah,0x0(%ebp)
   3725a:	00 00                	add    %al,(%eax)
   3725c:	45                   	inc    %ebp
   3725d:	00 00                	add    %al,(%eax)
   3725f:	00 00                	add    %al,(%eax)
   37261:	00 00                	add    %al,(%eax)
   37263:	00 72 00             	add    %dh,0x0(%edx)
   37266:	00 00                	add    %al,(%eax)
   37268:	52                   	push   %edx
   37269:	00 00                	add    %al,(%eax)
   3726b:	00 00                	add    %al,(%eax)
   3726d:	00 00                	add    %al,(%eax)
   3726f:	00 74 00 00          	add    %dh,0x0(%eax,%eax,1)
   37273:	00 54 00 00          	add    %dl,0x0(%eax,%eax,1)
   37277:	00 00                	add    %al,(%eax)
   37279:	00 00                	add    %al,(%eax)
   3727b:	00 79 00             	add    %bh,0x0(%ecx)
   3727e:	00 00                	add    %al,(%eax)
   37280:	59                   	pop    %ecx
   37281:	00 00                	add    %al,(%eax)
   37283:	00 00                	add    %al,(%eax)
   37285:	00 00                	add    %al,(%eax)
   37287:	00 75 00             	add    %dh,0x0(%ebp)
   3728a:	00 00                	add    %al,(%eax)
   3728c:	55                   	push   %ebp
   3728d:	00 00                	add    %al,(%eax)
   3728f:	00 00                	add    %al,(%eax)
   37291:	00 00                	add    %al,(%eax)
   37293:	00 69 00             	add    %ch,0x0(%ecx)
   37296:	00 00                	add    %al,(%eax)
   37298:	49                   	dec    %ecx
   37299:	00 00                	add    %al,(%eax)
   3729b:	00 00                	add    %al,(%eax)
   3729d:	00 00                	add    %al,(%eax)
   3729f:	00 6f 00             	add    %ch,0x0(%edi)
   372a2:	00 00                	add    %al,(%eax)
   372a4:	4f                   	dec    %edi
   372a5:	00 00                	add    %al,(%eax)
   372a7:	00 00                	add    %al,(%eax)
   372a9:	00 00                	add    %al,(%eax)
   372ab:	00 70 00             	add    %dh,0x0(%eax)
   372ae:	00 00                	add    %al,(%eax)
   372b0:	50                   	push   %eax
   372b1:	00 00                	add    %al,(%eax)
   372b3:	00 00                	add    %al,(%eax)
   372b5:	00 00                	add    %al,(%eax)
   372b7:	00 5b 00             	add    %bl,0x0(%ebx)
   372ba:	00 00                	add    %al,(%eax)
   372bc:	7b 00                	jnp    372be <keymap+0x13e>
   372be:	00 00                	add    %al,(%eax)
   372c0:	00 00                	add    %al,(%eax)
   372c2:	00 00                	add    %al,(%eax)
   372c4:	5d                   	pop    %ebp
   372c5:	00 00                	add    %al,(%eax)
   372c7:	00 7d 00             	add    %bh,0x0(%ebp)
   372ca:	00 00                	add    %al,(%eax)
   372cc:	00 00                	add    %al,(%eax)
   372ce:	00 00                	add    %al,(%eax)
   372d0:	03 01                	add    (%ecx),%eax
   372d2:	00 00                	add    %al,(%eax)
   372d4:	03 01                	add    (%ecx),%eax
   372d6:	00 00                	add    %al,(%eax)
   372d8:	30 01                	xor    %al,(%ecx)
   372da:	00 00                	add    %al,(%eax)
   372dc:	0a 01                	or     (%ecx),%al
   372de:	00 00                	add    %al,(%eax)
   372e0:	0a 01                	or     (%ecx),%al
   372e2:	00 00                	add    %al,(%eax)
   372e4:	0b 01                	or     (%ecx),%eax
   372e6:	00 00                	add    %al,(%eax)
   372e8:	61                   	popa   
   372e9:	00 00                	add    %al,(%eax)
   372eb:	00 41 00             	add    %al,0x0(%ecx)
   372ee:	00 00                	add    %al,(%eax)
   372f0:	00 00                	add    %al,(%eax)
   372f2:	00 00                	add    %al,(%eax)
   372f4:	73 00                	jae    372f6 <keymap+0x176>
   372f6:	00 00                	add    %al,(%eax)
   372f8:	53                   	push   %ebx
   372f9:	00 00                	add    %al,(%eax)
   372fb:	00 00                	add    %al,(%eax)
   372fd:	00 00                	add    %al,(%eax)
   372ff:	00 64 00 00          	add    %ah,0x0(%eax,%eax,1)
   37303:	00 44 00 00          	add    %al,0x0(%eax,%eax,1)
   37307:	00 00                	add    %al,(%eax)
   37309:	00 00                	add    %al,(%eax)
   3730b:	00 66 00             	add    %ah,0x0(%esi)
   3730e:	00 00                	add    %al,(%eax)
   37310:	46                   	inc    %esi
   37311:	00 00                	add    %al,(%eax)
   37313:	00 00                	add    %al,(%eax)
   37315:	00 00                	add    %al,(%eax)
   37317:	00 67 00             	add    %ah,0x0(%edi)
   3731a:	00 00                	add    %al,(%eax)
   3731c:	47                   	inc    %edi
   3731d:	00 00                	add    %al,(%eax)
   3731f:	00 00                	add    %al,(%eax)
   37321:	00 00                	add    %al,(%eax)
   37323:	00 68 00             	add    %ch,0x0(%eax)
   37326:	00 00                	add    %al,(%eax)
   37328:	48                   	dec    %eax
   37329:	00 00                	add    %al,(%eax)
   3732b:	00 00                	add    %al,(%eax)
   3732d:	00 00                	add    %al,(%eax)
   3732f:	00 6a 00             	add    %ch,0x0(%edx)
   37332:	00 00                	add    %al,(%eax)
   37334:	4a                   	dec    %edx
   37335:	00 00                	add    %al,(%eax)
   37337:	00 00                	add    %al,(%eax)
   37339:	00 00                	add    %al,(%eax)
   3733b:	00 6b 00             	add    %ch,0x0(%ebx)
   3733e:	00 00                	add    %al,(%eax)
   37340:	4b                   	dec    %ebx
   37341:	00 00                	add    %al,(%eax)
   37343:	00 00                	add    %al,(%eax)
   37345:	00 00                	add    %al,(%eax)
   37347:	00 6c 00 00          	add    %ch,0x0(%eax,%eax,1)
   3734b:	00 4c 00 00          	add    %cl,0x0(%eax,%eax,1)
   3734f:	00 00                	add    %al,(%eax)
   37351:	00 00                	add    %al,(%eax)
   37353:	00 3b                	add    %bh,(%ebx)
   37355:	00 00                	add    %al,(%eax)
   37357:	00 3a                	add    %bh,(%edx)
   37359:	00 00                	add    %al,(%eax)
   3735b:	00 00                	add    %al,(%eax)
   3735d:	00 00                	add    %al,(%eax)
   3735f:	00 27                	add    %ah,(%edi)
   37361:	00 00                	add    %al,(%eax)
   37363:	00 22                	add    %ah,(%edx)
   37365:	00 00                	add    %al,(%eax)
   37367:	00 00                	add    %al,(%eax)
   37369:	00 00                	add    %al,(%eax)
   3736b:	00 60 00             	add    %ah,0x0(%eax)
   3736e:	00 00                	add    %al,(%eax)
   37370:	7e 00                	jle    37372 <keymap+0x1f2>
   37372:	00 00                	add    %al,(%eax)
   37374:	00 00                	add    %al,(%eax)
   37376:	00 00                	add    %al,(%eax)
   37378:	08 01                	or     %al,(%ecx)
   3737a:	00 00                	add    %al,(%eax)
   3737c:	08 01                	or     %al,(%ecx)
   3737e:	00 00                	add    %al,(%eax)
   37380:	00 00                	add    %al,(%eax)
   37382:	00 00                	add    %al,(%eax)
   37384:	5c                   	pop    %esp
   37385:	00 00                	add    %al,(%eax)
   37387:	00 7c 00 00          	add    %bh,0x0(%eax,%eax,1)
   3738b:	00 00                	add    %al,(%eax)
   3738d:	00 00                	add    %al,(%eax)
   3738f:	00 7a 00             	add    %bh,0x0(%edx)
   37392:	00 00                	add    %al,(%eax)
   37394:	5a                   	pop    %edx
   37395:	00 00                	add    %al,(%eax)
   37397:	00 00                	add    %al,(%eax)
   37399:	00 00                	add    %al,(%eax)
   3739b:	00 78 00             	add    %bh,0x0(%eax)
   3739e:	00 00                	add    %al,(%eax)
   373a0:	58                   	pop    %eax
   373a1:	00 00                	add    %al,(%eax)
   373a3:	00 00                	add    %al,(%eax)
   373a5:	00 00                	add    %al,(%eax)
   373a7:	00 63 00             	add    %ah,0x0(%ebx)
   373aa:	00 00                	add    %al,(%eax)
   373ac:	43                   	inc    %ebx
   373ad:	00 00                	add    %al,(%eax)
   373af:	00 00                	add    %al,(%eax)
   373b1:	00 00                	add    %al,(%eax)
   373b3:	00 76 00             	add    %dh,0x0(%esi)
   373b6:	00 00                	add    %al,(%eax)
   373b8:	56                   	push   %esi
   373b9:	00 00                	add    %al,(%eax)
   373bb:	00 00                	add    %al,(%eax)
   373bd:	00 00                	add    %al,(%eax)
   373bf:	00 62 00             	add    %ah,0x0(%edx)
   373c2:	00 00                	add    %al,(%eax)
   373c4:	42                   	inc    %edx
   373c5:	00 00                	add    %al,(%eax)
   373c7:	00 00                	add    %al,(%eax)
   373c9:	00 00                	add    %al,(%eax)
   373cb:	00 6e 00             	add    %ch,0x0(%esi)
   373ce:	00 00                	add    %al,(%eax)
   373d0:	4e                   	dec    %esi
   373d1:	00 00                	add    %al,(%eax)
   373d3:	00 00                	add    %al,(%eax)
   373d5:	00 00                	add    %al,(%eax)
   373d7:	00 6d 00             	add    %ch,0x0(%ebp)
   373da:	00 00                	add    %al,(%eax)
   373dc:	4d                   	dec    %ebp
   373dd:	00 00                	add    %al,(%eax)
   373df:	00 00                	add    %al,(%eax)
   373e1:	00 00                	add    %al,(%eax)
   373e3:	00 2c 00             	add    %ch,(%eax,%eax,1)
   373e6:	00 00                	add    %al,(%eax)
   373e8:	3c 00                	cmp    $0x0,%al
   373ea:	00 00                	add    %al,(%eax)
   373ec:	00 00                	add    %al,(%eax)
   373ee:	00 00                	add    %al,(%eax)
   373f0:	2e 00 00             	add    %al,%cs:(%eax)
   373f3:	00 3e                	add    %bh,(%esi)
   373f5:	00 00                	add    %al,(%eax)
   373f7:	00 00                	add    %al,(%eax)
   373f9:	00 00                	add    %al,(%eax)
   373fb:	00 2f                	add    %ch,(%edi)
   373fd:	00 00                	add    %al,(%eax)
   373ff:	00 3f                	add    %bh,(%edi)
   37401:	00 00                	add    %al,(%eax)
   37403:	00 2c 01             	add    %ch,(%ecx,%eax,1)
   37406:	00 00                	add    %al,(%eax)
   37408:	09 01                	or     %eax,(%ecx)
   3740a:	00 00                	add    %al,(%eax)
   3740c:	09 01                	or     %eax,(%ecx)
   3740e:	00 00                	add    %al,(%eax)
   37410:	00 00                	add    %al,(%eax)
   37412:	00 00                	add    %al,(%eax)
   37414:	2a 00                	sub    (%eax),%al
   37416:	00 00                	add    %al,(%eax)
   37418:	2a 00                	sub    (%eax),%al
   3741a:	00 00                	add    %al,(%eax)
   3741c:	00 00                	add    %al,(%eax)
   3741e:	00 00                	add    %al,(%eax)
   37420:	0c 01                	or     $0x1,%al
   37422:	00 00                	add    %al,(%eax)
   37424:	0c 01                	or     $0x1,%al
   37426:	00 00                	add    %al,(%eax)
   37428:	0d 01 00 00 20       	or     $0x20000001,%eax
   3742d:	00 00                	add    %al,(%eax)
   3742f:	00 20                	add    %ah,(%eax)
   37431:	00 00                	add    %al,(%eax)
   37433:	00 00                	add    %al,(%eax)
   37435:	00 00                	add    %al,(%eax)
   37437:	00 0e                	add    %cl,(%esi)
   37439:	01 00                	add    %eax,(%eax)
   3743b:	00 0e                	add    %cl,(%esi)
   3743d:	01 00                	add    %eax,(%eax)
   3743f:	00 00                	add    %al,(%eax)
   37441:	00 00                	add    %al,(%eax)
   37443:	00 11                	add    %dl,(%ecx)
   37445:	01 00                	add    %eax,(%eax)
   37447:	00 11                	add    %dl,(%ecx)
   37449:	01 00                	add    %eax,(%eax)
   3744b:	00 00                	add    %al,(%eax)
   3744d:	00 00                	add    %al,(%eax)
   3744f:	00 12                	add    %dl,(%edx)
   37451:	01 00                	add    %eax,(%eax)
   37453:	00 12                	add    %dl,(%edx)
   37455:	01 00                	add    %eax,(%eax)
   37457:	00 00                	add    %al,(%eax)
   37459:	00 00                	add    %al,(%eax)
   3745b:	00 13                	add    %dl,(%ebx)
   3745d:	01 00                	add    %eax,(%eax)
   3745f:	00 13                	add    %dl,(%ebx)
   37461:	01 00                	add    %eax,(%eax)
   37463:	00 00                	add    %al,(%eax)
   37465:	00 00                	add    %al,(%eax)
   37467:	00 14 01             	add    %dl,(%ecx,%eax,1)
   3746a:	00 00                	add    %al,(%eax)
   3746c:	14 01                	adc    $0x1,%al
   3746e:	00 00                	add    %al,(%eax)
   37470:	00 00                	add    %al,(%eax)
   37472:	00 00                	add    %al,(%eax)
   37474:	15 01 00 00 15       	adc    $0x15000001,%eax
   37479:	01 00                	add    %eax,(%eax)
   3747b:	00 00                	add    %al,(%eax)
   3747d:	00 00                	add    %al,(%eax)
   3747f:	00 16                	add    %dl,(%esi)
   37481:	01 00                	add    %eax,(%eax)
   37483:	00 16                	add    %dl,(%esi)
   37485:	01 00                	add    %eax,(%eax)
   37487:	00 00                	add    %al,(%eax)
   37489:	00 00                	add    %al,(%eax)
   3748b:	00 17                	add    %dl,(%edi)
   3748d:	01 00                	add    %eax,(%eax)
   3748f:	00 17                	add    %dl,(%edi)
   37491:	01 00                	add    %eax,(%eax)
   37493:	00 00                	add    %al,(%eax)
   37495:	00 00                	add    %al,(%eax)
   37497:	00 18                	add    %bl,(%eax)
   37499:	01 00                	add    %eax,(%eax)
   3749b:	00 18                	add    %bl,(%eax)
   3749d:	01 00                	add    %eax,(%eax)
   3749f:	00 00                	add    %al,(%eax)
   374a1:	00 00                	add    %al,(%eax)
   374a3:	00 19                	add    %bl,(%ecx)
   374a5:	01 00                	add    %eax,(%eax)
   374a7:	00 19                	add    %bl,(%ecx)
   374a9:	01 00                	add    %eax,(%eax)
   374ab:	00 00                	add    %al,(%eax)
   374ad:	00 00                	add    %al,(%eax)
   374af:	00 1a                	add    %bl,(%edx)
   374b1:	01 00                	add    %eax,(%eax)
   374b3:	00 1a                	add    %bl,(%edx)
   374b5:	01 00                	add    %eax,(%eax)
   374b7:	00 00                	add    %al,(%eax)
   374b9:	00 00                	add    %al,(%eax)
   374bb:	00 0f                	add    %cl,(%edi)
   374bd:	01 00                	add    %eax,(%eax)
   374bf:	00 0f                	add    %cl,(%edi)
   374c1:	01 00                	add    %eax,(%eax)
   374c3:	00 00                	add    %al,(%eax)
   374c5:	00 00                	add    %al,(%eax)
   374c7:	00 10                	add    %dl,(%eax)
   374c9:	01 00                	add    %eax,(%eax)
   374cb:	00 10                	add    %dl,(%eax)
   374cd:	01 00                	add    %eax,(%eax)
   374cf:	00 00                	add    %al,(%eax)
   374d1:	00 00                	add    %al,(%eax)
   374d3:	00 39                	add    %bh,(%ecx)
   374d5:	01 00                	add    %eax,(%eax)
   374d7:	00 37                	add    %dh,(%edi)
   374d9:	00 00                	add    %al,(%eax)
   374db:	00 21                	add    %ah,(%ecx)
   374dd:	01 00                	add    %eax,(%eax)
   374df:	00 3a                	add    %bh,(%edx)
   374e1:	01 00                	add    %eax,(%eax)
   374e3:	00 38                	add    %bh,(%eax)
   374e5:	00 00                	add    %al,(%eax)
   374e7:	00 25 01 00 00 3b    	add    %ah,0x3b000001
   374ed:	01 00                	add    %eax,(%eax)
   374ef:	00 39                	add    %bh,(%ecx)
   374f1:	00 00                	add    %al,(%eax)
   374f3:	00 23                	add    %ah,(%ebx)
   374f5:	01 00                	add    %eax,(%eax)
   374f7:	00 2e                	add    %ch,(%esi)
   374f9:	01 00                	add    %eax,(%eax)
   374fb:	00 2d 00 00 00 00    	add    %ch,0x0
   37501:	00 00                	add    %al,(%eax)
   37503:	00 36                	add    %dh,(%esi)
   37505:	01 00                	add    %eax,(%eax)
   37507:	00 34 00             	add    %dh,(%eax,%eax,1)
   3750a:	00 00                	add    %al,(%eax)
   3750c:	27                   	daa    
   3750d:	01 00                	add    %eax,(%eax)
   3750f:	00 37                	add    %dh,(%edi)
   37511:	01 00                	add    %eax,(%eax)
   37513:	00 35 00 00 00 00    	add    %dh,0x0
   37519:	00 00                	add    %al,(%eax)
   3751b:	00 38                	add    %bh,(%eax)
   3751d:	01 00                	add    %eax,(%eax)
   3751f:	00 36                	add    %dh,(%esi)
   37521:	00 00                	add    %al,(%eax)
   37523:	00 28                	add    %ch,(%eax)
   37525:	01 00                	add    %eax,(%eax)
   37527:	00 2f                	add    %ch,(%edi)
   37529:	01 00                	add    %eax,(%eax)
   3752b:	00 2b                	add    %ch,(%ebx)
   3752d:	00 00                	add    %al,(%eax)
   3752f:	00 00                	add    %al,(%eax)
   37531:	00 00                	add    %al,(%eax)
   37533:	00 33                	add    %dh,(%ebx)
   37535:	01 00                	add    %eax,(%eax)
   37537:	00 31                	add    %dh,(%ecx)
   37539:	00 00                	add    %al,(%eax)
   3753b:	00 22                	add    %ah,(%edx)
   3753d:	01 00                	add    %eax,(%eax)
   3753f:	00 34 01             	add    %dh,(%ecx,%eax,1)
   37542:	00 00                	add    %al,(%eax)
   37544:	32 00                	xor    (%eax),%al
   37546:	00 00                	add    %al,(%eax)
   37548:	26 01 00             	add    %eax,%es:(%eax)
   3754b:	00 35 01 00 00 33    	add    %dh,0x33000001
   37551:	00 00                	add    %al,(%eax)
   37553:	00 24 01             	add    %ah,(%ecx,%eax,1)
   37556:	00 00                	add    %al,(%eax)
   37558:	32 01                	xor    (%ecx),%al
   3755a:	00 00                	add    %al,(%eax)
   3755c:	30 00                	xor    %al,(%eax)
   3755e:	00 00                	add    %al,(%eax)
   37560:	1f                   	pop    %ds
   37561:	01 00                	add    %eax,(%eax)
   37563:	00 31                	add    %dh,(%ecx)
   37565:	01 00                	add    %eax,(%eax)
   37567:	00 2e                	add    %ch,(%esi)
   37569:	00 00                	add    %al,(%eax)
   3756b:	00 20                	add    %ah,(%eax)
   3756d:	01 00                	add    %eax,(%eax)
	...
   37593:	00 1b                	add    %bl,(%ebx)
   37595:	01 00                	add    %eax,(%eax)
   37597:	00 1b                	add    %bl,(%ebx)
   37599:	01 00                	add    %eax,(%eax)
   3759b:	00 00                	add    %al,(%eax)
   3759d:	00 00                	add    %al,(%eax)
   3759f:	00 1c 01             	add    %bl,(%ecx,%eax,1)
   375a2:	00 00                	add    %al,(%eax)
   375a4:	1c 01                	sbb    $0x1,%al
	...
   375ca:	00 00                	add    %al,(%eax)
   375cc:	05 01 00 00 00       	add    $0x1,%eax
   375d1:	00 00                	add    %al,(%eax)
   375d3:	00 00                	add    %al,(%eax)
   375d5:	00 00                	add    %al,(%eax)
   375d7:	00 06                	add    %al,(%esi)
   375d9:	01 00                	add    %eax,(%eax)
	...
   375e3:	00 07                	add    %al,(%edi)
   375e5:	01 00                	add    %eax,(%eax)
	...

00037780 <call_vec>:
   37780:	15 4e 03 00 ff       	adc    $0xff00034e,%eax
   37785:	4d                   	dec    %ebp
   37786:	03 00                	add    (%eax),%eax

Disassembly of section .bss:

000377a0 <StackSpace>:
	...

000397a0 <StackTop>:
	...

000397cc <code_with_E0>:
   397cc:	00 00                	add    %al,(%eax)
	...

000397d0 <shift_l>:
   397d0:	00 00                	add    %al,(%eax)
	...

000397d4 <shift_r>:
   397d4:	00 00                	add    %al,(%eax)
	...

000397d8 <alt_l>:
   397d8:	00 00                	add    %al,(%eax)
	...

000397dc <alt_r>:
   397dc:	00 00                	add    %al,(%eax)
	...

000397e0 <ctrl_l>:
   397e0:	00 00                	add    %al,(%eax)
	...

000397e4 <ctrl_r>:
   397e4:	00 00                	add    %al,(%eax)
	...

000397e8 <caps_lock>:
   397e8:	00 00                	add    %al,(%eax)
	...

000397ec <num_lock>:
   397ec:	00 00                	add    %al,(%eax)
	...

000397f0 <scroll_lock>:
   397f0:	00 00                	add    %al,(%eax)
	...

000397f4 <column>:
	...

00039800 <hd_info>:
	...

00039b40 <hd_status>:
	...

00039b60 <hdbuf>:
	...

00039f60 <idt_ptr>:
	...

00039f80 <task_stack>:
	...

00065f80 <timerlist>:
   65f80:	00 00                	add    %al,(%eax)
	...

00065f84 <k_reenter>:
	...

00065fa0 <gdt>:
	...

000663a0 <next_proc>:
	...

000663c0 <tty_table>:
	...

00067000 <tss>:
	...

00067068 <nextexpiretime>:
   67068:	00 00                	add    %al,(%eax)
	...

0006706c <idle_status>:
   6706c:	00 00                	add    %al,(%eax)
	...

00067070 <nr_current_console>:
   67070:	00 00                	add    %al,(%eax)
	...

00067074 <disp_pos>:
   67074:	00 00                	add    %al,(%eax)
	...

00067078 <ring0_func>:
   67078:	00 00                	add    %al,(%eax)
	...

0006707c <gdt_ptr>:
	...

000670a0 <idt>:
	...

000678a0 <ticks>:
	...

000678c0 <console_table>:
	...

00067900 <irq_table>:
	...

00067940 <p_proc_ready>:
	...

00067960 <proc_table>:
	...

00067e80 <PARTITION_ENTRY>:
	...

Disassembly of section .comment:

00000000 <.comment>:
   0:	00 54 68 65          	add    %dl,0x65(%eax,%ebp,2)
   4:	20 4e 65             	and    %cl,0x65(%esi)
   7:	74 77                	je     80 <INT_VECTOR_RING0>
   9:	69 64 65 20 41 73 73 	imul   $0x65737341,0x20(%ebp,%eiz,2),%esp
  10:	65 
  11:	6d                   	insl   (%dx),%es:(%edi)
  12:	62 6c 65 72          	bound  %ebp,0x72(%ebp,%eiz,2)
  16:	20 32                	and    %dh,(%edx)
  18:	2e 30 35 2e 30 31 00 	xor    %dh,%cs:0x31302e
  1f:	47                   	inc    %edi
  20:	43                   	inc    %ebx
  21:	43                   	inc    %ebx
  22:	3a 20                	cmp    (%eax),%ah
  24:	28 55 62             	sub    %dl,0x62(%ebp)
  27:	75 6e                	jne    97 <INT_VECTOR_SYS_CALL+0x7>
  29:	74 75                	je     a0 <INT_S_CTL>
  2b:	20 34 2e             	and    %dh,(%esi,%ebp,1)
  2e:	34 2e                	xor    $0x2e,%al
  30:	31 2d 34 75 62 75    	xor    %ebp,0x75627534
  36:	6e                   	outsb  %ds:(%esi),(%dx)
  37:	74 75                	je     ae <INT_S_CTLMASK+0xd>
  39:	39 29                	cmp    %ebp,(%ecx)
  3b:	20 34 2e             	and    %dh,(%esi,%ebp,1)
  3e:	34 2e                	xor    $0x2e,%al
  40:	31 00                	xor    %eax,(%eax)
  42:	00 54 68 65          	add    %dl,0x65(%eax,%ebp,2)
  46:	20 4e 65             	and    %cl,0x65(%esi)
  49:	74 77                	je     c2 <INT_S_CTLMASK+0x21>
  4b:	69 64 65 20 41 73 73 	imul   $0x65737341,0x20(%ebp,%eiz,2),%esp
  52:	65 
  53:	6d                   	insl   (%dx),%es:(%edi)
  54:	62 6c 65 72          	bound  %ebp,0x72(%ebp,%eiz,2)
  58:	20 32                	and    %dh,(%edx)
  5a:	2e 30 35 2e 30 31 00 	xor    %dh,%cs:0x31302e
  61:	00 54 68 65          	add    %dl,0x65(%eax,%ebp,2)
  65:	20 4e 65             	and    %cl,0x65(%esi)
  68:	74 77                	je     e1 <INT_S_CTLMASK+0x40>
  6a:	69 64 65 20 41 73 73 	imul   $0x65737341,0x20(%ebp,%eiz,2),%esp
  71:	65 
  72:	6d                   	insl   (%dx),%es:(%edi)
  73:	62 6c 65 72          	bound  %ebp,0x72(%ebp,%eiz,2)
  77:	20 32                	and    %dh,(%edx)
  79:	2e 30 35 2e 30 31 00 	xor    %dh,%cs:0x31302e
  80:	00 54 68 65          	add    %dl,0x65(%eax,%ebp,2)
  84:	20 4e 65             	and    %cl,0x65(%esi)
  87:	74 77                	je     100 <INT_S_CTLMASK+0x5f>
  89:	69 64 65 20 41 73 73 	imul   $0x65737341,0x20(%ebp,%eiz,2),%esp
  90:	65 
  91:	6d                   	insl   (%dx),%es:(%edi)
  92:	62 6c 65 72          	bound  %ebp,0x72(%ebp,%eiz,2)
  96:	20 32                	and    %dh,(%edx)
  98:	2e 30 35 2e 30 31 00 	xor    %dh,%cs:0x31302e
